
/home/tututu/hry/ysyx/ysyx-workbench/am-kernels/kernels/demo/build/demo-riscv32e-ysyxsoc.elf:     file format elf32-littleriscv


Disassembly of section .entry:

30000000 <_start>:
30000000:	00000517          	auipc	a0,0x0
30000004:	03850513          	addi	a0,a0,56 # 30000038 <_bssbl_lma>
30000008:	df000597          	auipc	a1,0xdf000
3000000c:	ff858593          	addi	a1,a1,-8 # f000000 <SSBL>
30000010:	df000617          	auipc	a2,0xdf000
30000014:	0a060613          	addi	a2,a2,160 # f0000b0 <_essbl>

30000018 <LD_SSBL>:
30000018:	00c5dc63          	bge	a1,a2,30000030 <END>
3000001c:	00052403          	lw	s0,0(a0)
30000020:	0085a023          	sw	s0,0(a1)
30000024:	00450513          	addi	a0,a0,4
30000028:	00458593          	addi	a1,a1,4
3000002c:	fedff06f          	j	30000018 <LD_SSBL>

30000030 <END>:
30000030:	df000097          	auipc	ra,0xdf000
30000034:	fd0080e7          	jalr	-48(ra) # f000000 <SSBL>

Disassembly of section .second:

0f000000 <SSBL>:
 f000000:	21009297          	auipc	t0,0x21009
 f000004:	44028293          	addi	t0,t0,1088 # 30009440 <_bdata_lma>
 f000008:	91009317          	auipc	t1,0x91009
 f00000c:	35030313          	addi	t1,t1,848 # a0009358 <_stack_pointer+0xfc009358>
 f000010:	91009397          	auipc	t2,0x91009
 f000014:	57038393          	addi	t2,t2,1392 # a0009580 <_stack_pointer+0xfc009580>
 f000018:	00038493          	mv	s1,t2
 f00001c:	ffc3f393          	andi	t2,t2,-4

0f000020 <LD_DATA>:
 f000020:	00735c63          	bge	t1,t2,f000038 <LD_DATA_UNALIGN>
 f000024:	0002a403          	lw	s0,0(t0)
 f000028:	00832023          	sw	s0,0(t1)
 f00002c:	00428293          	addi	t0,t0,4
 f000030:	00430313          	addi	t1,t1,4
 f000034:	fedff06f          	j	f000020 <LD_DATA>

0f000038 <LD_DATA_UNALIGN>:
 f000038:	00935c63          	bge	t1,s1,f000050 <TEXT>
 f00003c:	00028403          	lb	s0,0(t0)
 f000040:	00830023          	sb	s0,0(t1)
 f000044:	00128293          	addi	t0,t0,1
 f000048:	00130313          	addi	t1,t1,1
 f00004c:	fedff06f          	j	f000038 <LD_DATA_UNALIGN>

0f000050 <TEXT>:
 f000050:	21000297          	auipc	t0,0x21000
 f000054:	09828293          	addi	t0,t0,152 # 300000e8 <_btext_lma>
 f000058:	91000317          	auipc	t1,0x91000
 f00005c:	fa830313          	addi	t1,t1,-88 # a0000000 <_stack_pointer+0xfc000000>
 f000060:	91009397          	auipc	t2,0x91009
 f000064:	2f638393          	addi	t2,t2,758 # a0009356 <_stack_pointer+0xfc009356>
 f000068:	00038493          	mv	s1,t2
 f00006c:	ffc3f393          	andi	t2,t2,-4

0f000070 <LD_TEXT>:
 f000070:	00735c63          	bge	t1,t2,f000088 <LD_TEXT_UNALIGN>
 f000074:	0002a403          	lw	s0,0(t0)
 f000078:	00832023          	sw	s0,0(t1)
 f00007c:	00428293          	addi	t0,t0,4
 f000080:	00430313          	addi	t1,t1,4
 f000084:	fedff06f          	j	f000070 <LD_TEXT>

0f000088 <LD_TEXT_UNALIGN>:
 f000088:	00935c63          	bge	t1,s1,f0000a0 <GO>
 f00008c:	00028403          	lb	s0,0(t0)
 f000090:	00830023          	sb	s0,0(t1)
 f000094:	00128293          	addi	t0,t0,1
 f000098:	00130313          	addi	t1,t1,1
 f00009c:	fedff06f          	j	f000088 <LD_TEXT_UNALIGN>

0f0000a0 <GO>:
 f0000a0:	95000117          	auipc	sp,0x95000
 f0000a4:	f6010113          	addi	sp,sp,-160 # a4000000 <_stack_pointer+0x0>
 f0000a8:	91003097          	auipc	ra,0x91003
 f0000ac:	244080e7          	jalr	580(ra) # a00032ec <_stack_pointer+0xfc0032ec>

Disassembly of section .text:

a0000000 <main>:
a0000000:	fec10113          	addi	sp,sp,-20
a0000004:	00812623          	sw	s0,12(sp)
a0000008:	00112823          	sw	ra,16(sp)
a000000c:	00050413          	mv	s0,a0
a0000010:	3e4030ef          	jal	ra,a00033f4 <ioe_init>
a0000014:	00044783          	lbu	a5,0(s0)
a0000018:	00700713          	li	a4,7
a000001c:	fcf78793          	addi	a5,a5,-49
a0000020:	0ff7f793          	zext.b	a5,a5
a0000024:	08f76e63          	bltu	a4,a5,a00000c0 <main+0xc0>
a0000028:	00004717          	auipc	a4,0x4
a000002c:	5e070713          	addi	a4,a4,1504 # a0004608 <__ctzsi2+0x118>
a0000030:	00279793          	slli	a5,a5,0x2
a0000034:	00e787b3          	add	a5,a5,a4
a0000038:	0007a783          	lw	a5,0(a5)
a000003c:	00e787b3          	add	a5,a5,a4
a0000040:	00078067          	jr	a5
a0000044:	4a1020ef          	jal	ra,a0002ce4 <donut>
a0000048:	00004517          	auipc	a0,0x4
a000004c:	5ac50513          	addi	a0,a0,1452 # a00045f4 <__ctzsi2+0x104>
a0000050:	631030ef          	jal	ra,a0003e80 <printf>
a0000054:	01d00413          	li	s0,29
a0000058:	00010593          	mv	a1,sp
a000005c:	00800513          	li	a0,8
a0000060:	3f0030ef          	jal	ra,a0003450 <ioe_read>
a0000064:	00014783          	lbu	a5,0(sp)
a0000068:	00412703          	lw	a4,4(sp)
a000006c:	fe0786e3          	beqz	a5,a0000058 <main+0x58>
a0000070:	fe8714e3          	bne	a4,s0,a0000058 <main+0x58>
a0000074:	01012083          	lw	ra,16(sp)
a0000078:	00c12403          	lw	s0,12(sp)
a000007c:	00000513          	li	a0,0
a0000080:	01410113          	addi	sp,sp,20
a0000084:	00008067          	ret
a0000088:	058020ef          	jal	ra,a00020e0 <bf>
a000008c:	fbdff06f          	j	a0000048 <main+0x48>
a0000090:	5c0000ef          	jal	ra,a0000650 <ant>
a0000094:	fb5ff06f          	j	a0000048 <main+0x48>
a0000098:	4dc020ef          	jal	ra,a0002574 <galton>
a000009c:	fadff06f          	j	a0000048 <main+0x48>
a00000a0:	010010ef          	jal	ra,a00010b0 <hanoi>
a00000a4:	fa5ff06f          	j	a0000048 <main+0x48>
a00000a8:	404000ef          	jal	ra,a00004ac <game_of_life>
a00000ac:	f9dff06f          	j	a0000048 <main+0x48>
a00000b0:	14c010ef          	jal	ra,a00011fc <aclock>
a00000b4:	f95ff06f          	j	a0000048 <main+0x48>
a00000b8:	610010ef          	jal	ra,a00016c8 <cmatrix>
a00000bc:	f8dff06f          	j	a0000048 <main+0x48>
a00000c0:	00004517          	auipc	a0,0x4
a00000c4:	4a450513          	addi	a0,a0,1188 # a0004564 <__ctzsi2+0x74>
a00000c8:	5b9030ef          	jal	ra,a0003e80 <printf>
a00000cc:	00004517          	auipc	a0,0x4
a00000d0:	4b450513          	addi	a0,a0,1204 # a0004580 <__ctzsi2+0x90>
a00000d4:	5ad030ef          	jal	ra,a0003e80 <printf>
a00000d8:	00004517          	auipc	a0,0x4
a00000dc:	4b450513          	addi	a0,a0,1204 # a000458c <__ctzsi2+0x9c>
a00000e0:	5a1030ef          	jal	ra,a0003e80 <printf>
a00000e4:	00004517          	auipc	a0,0x4
a00000e8:	4b850513          	addi	a0,a0,1208 # a000459c <__ctzsi2+0xac>
a00000ec:	595030ef          	jal	ra,a0003e80 <printf>
a00000f0:	00004517          	auipc	a0,0x4
a00000f4:	4b850513          	addi	a0,a0,1208 # a00045a8 <__ctzsi2+0xb8>
a00000f8:	589030ef          	jal	ra,a0003e80 <printf>
a00000fc:	00004517          	auipc	a0,0x4
a0000100:	4c050513          	addi	a0,a0,1216 # a00045bc <__ctzsi2+0xcc>
a0000104:	57d030ef          	jal	ra,a0003e80 <printf>
a0000108:	00004517          	auipc	a0,0x4
a000010c:	4c450513          	addi	a0,a0,1220 # a00045cc <__ctzsi2+0xdc>
a0000110:	571030ef          	jal	ra,a0003e80 <printf>
a0000114:	00004517          	auipc	a0,0x4
a0000118:	4c850513          	addi	a0,a0,1224 # a00045dc <__ctzsi2+0xec>
a000011c:	565030ef          	jal	ra,a0003e80 <printf>
a0000120:	00004517          	auipc	a0,0x4
a0000124:	4c850513          	addi	a0,a0,1224 # a00045e8 <__ctzsi2+0xf8>
a0000128:	559030ef          	jal	ra,a0003e80 <printf>
a000012c:	f1dff06f          	j	a0000048 <main+0x48>

a0000130 <show>:
a0000130:	00009797          	auipc	a5,0x9
a0000134:	23078793          	addi	a5,a5,560 # a0009360 <w>
a0000138:	0007a783          	lw	a5,0(a5)
a000013c:	fc810113          	addi	sp,sp,-56
a0000140:	02812823          	sw	s0,48(sp)
a0000144:	02912623          	sw	s1,44(sp)
a0000148:	02112a23          	sw	ra,52(sp)
a000014c:	00f12023          	sw	a5,0(sp)
a0000150:	00a12223          	sw	a0,4(sp)
a0000154:	00000413          	li	s0,0
a0000158:	00009497          	auipc	s1,0x9
a000015c:	46848493          	addi	s1,s1,1128 # a00095c0 <buf.2>
a0000160:	19000793          	li	a5,400
a0000164:	02f12023          	sw	a5,32(sp)
a0000168:	01410593          	addi	a1,sp,20
a000016c:	00100793          	li	a5,1
a0000170:	00b00513          	li	a0,11
a0000174:	00812c23          	sw	s0,24(sp)
a0000178:	02f12223          	sw	a5,36(sp)
a000017c:	00012a23          	sw	zero,20(sp)
a0000180:	00912e23          	sw	s1,28(sp)
a0000184:	02010423          	sb	zero,40(sp)
a0000188:	2e4030ef          	jal	ra,a000346c <ioe_write>
a000018c:	00140413          	addi	s0,s0,1
a0000190:	12c00793          	li	a5,300
a0000194:	fcf416e3          	bne	s0,a5,a0000160 <show+0x30>
a0000198:	00009797          	auipc	a5,0x9
a000019c:	1c078793          	addi	a5,a5,448 # a0009358 <h>
a00001a0:	0007a783          	lw	a5,0(a5)
a00001a4:	10f05a63          	blez	a5,a00002b8 <show+0x188>
a00001a8:	00012783          	lw	a5,0(sp)
a00001ac:	00012423          	sw	zero,8(sp)
a00001b0:	00279793          	slli	a5,a5,0x2
a00001b4:	00f12823          	sw	a5,16(sp)
a00001b8:	00412783          	lw	a5,4(sp)
a00001bc:	00f12623          	sw	a5,12(sp)
a00001c0:	00009797          	auipc	a5,0x9
a00001c4:	1a078793          	addi	a5,a5,416 # a0009360 <w>
a00001c8:	0007a783          	lw	a5,0(a5)
a00001cc:	0cf05063          	blez	a5,a000028c <show+0x15c>
a00001d0:	00812783          	lw	a5,8(sp)
a00001d4:	00c12303          	lw	t1,12(sp)
a00001d8:	00000493          	li	s1,0
a00001dc:	00279793          	slli	a5,a5,0x2
a00001e0:	00f12223          	sw	a5,4(sp)
a00001e4:	00009417          	auipc	s0,0x9
a00001e8:	3dc40413          	addi	s0,s0,988 # a00095c0 <buf.2>
a00001ec:	00032783          	lw	a5,0(t1)
a00001f0:	00009717          	auipc	a4,0x9
a00001f4:	16c70713          	addi	a4,a4,364 # a000935c <last_c.1>
a00001f8:	00074703          	lbu	a4,0(a4)
a00001fc:	0e078c63          	beqz	a5,a00002f4 <show+0x1c4>
a0000200:	06f00793          	li	a5,111
a0000204:	02f70863          	beq	a4,a5,a0000234 <show+0x104>
a0000208:	00cc6737          	lui	a4,0xcc6
a000020c:	06f00793          	li	a5,111
a0000210:	63370713          	addi	a4,a4,1587 # cc6633 <_entry_offset+0xcc6633>
a0000214:	00009697          	auipc	a3,0x9
a0000218:	14868693          	addi	a3,a3,328 # a000935c <last_c.1>
a000021c:	00f68023          	sb	a5,0(a3)
a0000220:	00009797          	auipc	a5,0x9
a0000224:	36078793          	addi	a5,a5,864 # a0009580 <buf.0>
a0000228:	00e7a023          	sw	a4,0(a5)
a000022c:	00478793          	addi	a5,a5,4
a0000230:	fef41ce3          	bne	s0,a5,a0000228 <show+0xf8>
a0000234:	00249713          	slli	a4,s1,0x2
a0000238:	00e12a23          	sw	a4,20(sp)
a000023c:	00412703          	lw	a4,4(sp)
a0000240:	00400793          	li	a5,4
a0000244:	01410593          	addi	a1,sp,20
a0000248:	00e12c23          	sw	a4,24(sp)
a000024c:	00b00513          	li	a0,11
a0000250:	00009717          	auipc	a4,0x9
a0000254:	33070713          	addi	a4,a4,816 # a0009580 <buf.0>
a0000258:	00612023          	sw	t1,0(sp)
a000025c:	02f12023          	sw	a5,32(sp)
a0000260:	02f12223          	sw	a5,36(sp)
a0000264:	00e12e23          	sw	a4,28(sp)
a0000268:	02010423          	sb	zero,40(sp)
a000026c:	200030ef          	jal	ra,a000346c <ioe_write>
a0000270:	00009797          	auipc	a5,0x9
a0000274:	0f078793          	addi	a5,a5,240 # a0009360 <w>
a0000278:	00012303          	lw	t1,0(sp)
a000027c:	0007a783          	lw	a5,0(a5)
a0000280:	00148493          	addi	s1,s1,1
a0000284:	00430313          	addi	t1,t1,4
a0000288:	f6f4c2e3          	blt	s1,a5,a00001ec <show+0xbc>
a000028c:	00812703          	lw	a4,8(sp)
a0000290:	00c12683          	lw	a3,12(sp)
a0000294:	01012603          	lw	a2,16(sp)
a0000298:	00009797          	auipc	a5,0x9
a000029c:	0c078793          	addi	a5,a5,192 # a0009358 <h>
a00002a0:	0007a783          	lw	a5,0(a5)
a00002a4:	00170713          	addi	a4,a4,1
a00002a8:	00c686b3          	add	a3,a3,a2
a00002ac:	00e12423          	sw	a4,8(sp)
a00002b0:	00d12623          	sw	a3,12(sp)
a00002b4:	f0f746e3          	blt	a4,a5,a00001c0 <show+0x90>
a00002b8:	01410593          	addi	a1,sp,20
a00002bc:	00100793          	li	a5,1
a00002c0:	00b00513          	li	a0,11
a00002c4:	00012a23          	sw	zero,20(sp)
a00002c8:	00012c23          	sw	zero,24(sp)
a00002cc:	00012e23          	sw	zero,28(sp)
a00002d0:	02012023          	sw	zero,32(sp)
a00002d4:	02012223          	sw	zero,36(sp)
a00002d8:	02f10423          	sb	a5,40(sp)
a00002dc:	190030ef          	jal	ra,a000346c <ioe_write>
a00002e0:	03412083          	lw	ra,52(sp)
a00002e4:	03012403          	lw	s0,48(sp)
a00002e8:	02c12483          	lw	s1,44(sp)
a00002ec:	03810113          	addi	sp,sp,56
a00002f0:	00008067          	ret
a00002f4:	02000793          	li	a5,32
a00002f8:	f2f70ee3          	beq	a4,a5,a0000234 <show+0x104>
a00002fc:	00000713          	li	a4,0
a0000300:	f15ff06f          	j	a0000214 <show+0xe4>

a0000304 <evolve>:
a0000304:	fd010113          	addi	sp,sp,-48
a0000308:	02812623          	sw	s0,44(sp)
a000030c:	02912423          	sw	s1,40(sp)
a0000310:	00009397          	auipc	t2,0x9
a0000314:	0483a383          	lw	t2,72(t2) # a0009358 <h>
a0000318:	00a12023          	sw	a0,0(sp)
a000031c:	00009317          	auipc	t1,0x9
a0000320:	04432303          	lw	t1,68(t1) # a0009360 <w>
a0000324:	0000d797          	auipc	a5,0xd
a0000328:	7687a783          	lw	a5,1896(a5) # a000da8c <new_array>
a000032c:	14705a63          	blez	t2,a0000480 <evolve+0x17c>
a0000330:	fff38693          	addi	a3,t2,-1
a0000334:	00139713          	slli	a4,t2,0x1
a0000338:	00d12623          	sw	a3,12(sp)
a000033c:	00012683          	lw	a3,0(sp)
a0000340:	00078613          	mv	a2,a5
a0000344:	fff70713          	addi	a4,a4,-1
a0000348:	02f12223          	sw	a5,36(sp)
a000034c:	00130793          	addi	a5,t1,1
a0000350:	00e12e23          	sw	a4,28(sp)
a0000354:	00179713          	slli	a4,a5,0x1
a0000358:	00231413          	slli	s0,t1,0x2
a000035c:	02d12023          	sw	a3,32(sp)
a0000360:	00e12823          	sw	a4,16(sp)
a0000364:	00d12c23          	sw	a3,24(sp)
a0000368:	00c12a23          	sw	a2,20(sp)
a000036c:	00712223          	sw	t2,4(sp)
a0000370:	08605e63          	blez	t1,a000040c <evolve+0x108>
a0000374:	01412783          	lw	a5,20(sp)
a0000378:	01812483          	lw	s1,24(sp)
a000037c:	00230513          	addi	a0,t1,2
a0000380:	00f12423          	sw	a5,8(sp)
a0000384:	00c12783          	lw	a5,12(sp)
a0000388:	fff30293          	addi	t0,t1,-1
a000038c:	00378393          	addi	t2,a5,3
a0000390:	00c12583          	lw	a1,12(sp)
a0000394:	00000613          	li	a2,0
a0000398:	00412783          	lw	a5,4(sp)
a000039c:	00028713          	mv	a4,t0
a00003a0:	02f5e6b3          	rem	a3,a1,a5
a00003a4:	00012783          	lw	a5,0(sp)
a00003a8:	028686b3          	mul	a3,a3,s0
a00003ac:	00d786b3          	add	a3,a5,a3
a00003b0:	026767b3          	rem	a5,a4,t1
a00003b4:	00170713          	addi	a4,a4,1
a00003b8:	00279793          	slli	a5,a5,0x2
a00003bc:	00f687b3          	add	a5,a3,a5
a00003c0:	0007a783          	lw	a5,0(a5)
a00003c4:	00f037b3          	snez	a5,a5
a00003c8:	00f60633          	add	a2,a2,a5
a00003cc:	fea712e3          	bne	a4,a0,a00003b0 <evolve+0xac>
a00003d0:	00158593          	addi	a1,a1,1
a00003d4:	fc7592e3          	bne	a1,t2,a0000398 <evolve+0x94>
a00003d8:	0004a783          	lw	a5,0(s1)
a00003dc:	0a079a63          	bnez	a5,a0000490 <evolve+0x18c>
a00003e0:	ffd60793          	addi	a5,a2,-3
a00003e4:	0017b793          	seqz	a5,a5
a00003e8:	00812703          	lw	a4,8(sp)
a00003ec:	00150513          	addi	a0,a0,1
a00003f0:	00448493          	addi	s1,s1,4
a00003f4:	00f72023          	sw	a5,0(a4)
a00003f8:	00470793          	addi	a5,a4,4
a00003fc:	00f12423          	sw	a5,8(sp)
a0000400:	01012783          	lw	a5,16(sp)
a0000404:	00128293          	addi	t0,t0,1
a0000408:	f8f514e3          	bne	a0,a5,a0000390 <evolve+0x8c>
a000040c:	01412703          	lw	a4,20(sp)
a0000410:	00c12783          	lw	a5,12(sp)
a0000414:	00870733          	add	a4,a4,s0
a0000418:	00e12a23          	sw	a4,20(sp)
a000041c:	01812703          	lw	a4,24(sp)
a0000420:	00178793          	addi	a5,a5,1
a0000424:	00f12623          	sw	a5,12(sp)
a0000428:	00870733          	add	a4,a4,s0
a000042c:	00e12c23          	sw	a4,24(sp)
a0000430:	01c12703          	lw	a4,28(sp)
a0000434:	f2e79ee3          	bne	a5,a4,a0000370 <evolve+0x6c>
a0000438:	00412383          	lw	t2,4(sp)
a000043c:	02012503          	lw	a0,32(sp)
a0000440:	02412283          	lw	t0,36(sp)
a0000444:	00000593          	li	a1,0
a0000448:	00050693          	mv	a3,a0
a000044c:	00028713          	mv	a4,t0
a0000450:	00000793          	li	a5,0
a0000454:	00605e63          	blez	t1,a0000470 <evolve+0x16c>
a0000458:	00072603          	lw	a2,0(a4)
a000045c:	00178793          	addi	a5,a5,1
a0000460:	00470713          	addi	a4,a4,4
a0000464:	00c6a023          	sw	a2,0(a3)
a0000468:	00468693          	addi	a3,a3,4
a000046c:	fef316e3          	bne	t1,a5,a0000458 <evolve+0x154>
a0000470:	00158593          	addi	a1,a1,1
a0000474:	008282b3          	add	t0,t0,s0
a0000478:	00850533          	add	a0,a0,s0
a000047c:	fc7596e3          	bne	a1,t2,a0000448 <evolve+0x144>
a0000480:	02c12403          	lw	s0,44(sp)
a0000484:	02812483          	lw	s1,40(sp)
a0000488:	03010113          	addi	sp,sp,48
a000048c:	00008067          	ret
a0000490:	fff60713          	addi	a4,a2,-1
a0000494:	00300693          	li	a3,3
a0000498:	00100793          	li	a5,1
a000049c:	f4d706e3          	beq	a4,a3,a00003e8 <evolve+0xe4>
a00004a0:	ffd60613          	addi	a2,a2,-3
a00004a4:	00163793          	seqz	a5,a2
a00004a8:	f41ff06f          	j	a00003e8 <evolve+0xe4>

a00004ac <game_of_life>:
a00004ac:	fbc10113          	addi	sp,sp,-68
a00004b0:	03310793          	addi	a5,sp,51
a00004b4:	01c10593          	addi	a1,sp,28
a00004b8:	00900513          	li	a0,9
a00004bc:	04112023          	sw	ra,64(sp)
a00004c0:	02812e23          	sw	s0,60(sp)
a00004c4:	02912c23          	sw	s1,56(sp)
a00004c8:	ff87f493          	andi	s1,a5,-8
a00004cc:	785020ef          	jal	ra,a0003450 <ioe_read>
a00004d0:	02012683          	lw	a3,32(sp)
a00004d4:	01c10593          	addi	a1,sp,28
a00004d8:	00009417          	auipc	s0,0x9
a00004dc:	e8840413          	addi	s0,s0,-376 # a0009360 <w>
a00004e0:	41f6d713          	srai	a4,a3,0x1f
a00004e4:	00377713          	andi	a4,a4,3
a00004e8:	00d70733          	add	a4,a4,a3
a00004ec:	40275713          	srai	a4,a4,0x2
a00004f0:	00900513          	li	a0,9
a00004f4:	00e42023          	sw	a4,0(s0)
a00004f8:	759020ef          	jal	ra,a0003450 <ioe_read>
a00004fc:	02412703          	lw	a4,36(sp)
a0000500:	00042783          	lw	a5,0(s0)
a0000504:	41f75413          	srai	s0,a4,0x1f
a0000508:	00347413          	andi	s0,s0,3
a000050c:	00e40433          	add	s0,s0,a4
a0000510:	00e12c23          	sw	a4,24(sp)
a0000514:	40245713          	srai	a4,s0,0x2
a0000518:	00078413          	mv	s0,a5
a000051c:	00f12a23          	sw	a5,20(sp)
a0000520:	00e12623          	sw	a4,12(sp)
a0000524:	00070793          	mv	a5,a4
a0000528:	02e40733          	mul	a4,s0,a4
a000052c:	00009697          	auipc	a3,0x9
a0000530:	e2f6a623          	sw	a5,-468(a3) # a0009358 <h>
a0000534:	00271713          	slli	a4,a4,0x2
a0000538:	00070513          	mv	a0,a4
a000053c:	00e12023          	sw	a4,0(sp)
a0000540:	215030ef          	jal	ra,a0003f54 <malloc>
a0000544:	00012703          	lw	a4,0(sp)
a0000548:	00050793          	mv	a5,a0
a000054c:	00a12223          	sw	a0,4(sp)
a0000550:	00070513          	mv	a0,a4
a0000554:	0000d717          	auipc	a4,0xd
a0000558:	52f72e23          	sw	a5,1340(a4) # a000da90 <univ_array>
a000055c:	1f9030ef          	jal	ra,a0003f54 <malloc>
a0000560:	0000d717          	auipc	a4,0xd
a0000564:	52a72623          	sw	a0,1324(a4) # a000da8c <new_array>
a0000568:	06805c63          	blez	s0,a00005e0 <game_of_life+0x134>
a000056c:	00241793          	slli	a5,s0,0x2
a0000570:	00f12423          	sw	a5,8(sp)
a0000574:	00012823          	sw	zero,16(sp)
a0000578:	01012783          	lw	a5,16(sp)
a000057c:	00300693          	li	a3,3
a0000580:	00000413          	li	s0,0
a0000584:	00279713          	slli	a4,a5,0x2
a0000588:	00412783          	lw	a5,4(sp)
a000058c:	00e78733          	add	a4,a5,a4
a0000590:	01812783          	lw	a5,24(sp)
a0000594:	02f6dc63          	bge	a3,a5,a00005cc <game_of_life+0x120>
a0000598:	00e12023          	sw	a4,0(sp)
a000059c:	185030ef          	jal	ra,a0003f20 <rand>
a00005a0:	01f55613          	srli	a2,a0,0x1f
a00005a4:	00012703          	lw	a4,0(sp)
a00005a8:	00812783          	lw	a5,8(sp)
a00005ac:	00c50533          	add	a0,a0,a2
a00005b0:	00157513          	andi	a0,a0,1
a00005b4:	40c50533          	sub	a0,a0,a2
a00005b8:	00a72023          	sw	a0,0(a4)
a00005bc:	00f70733          	add	a4,a4,a5
a00005c0:	00c12783          	lw	a5,12(sp)
a00005c4:	00140413          	addi	s0,s0,1
a00005c8:	fcf448e3          	blt	s0,a5,a0000598 <game_of_life+0xec>
a00005cc:	01012783          	lw	a5,16(sp)
a00005d0:	01412703          	lw	a4,20(sp)
a00005d4:	00178793          	addi	a5,a5,1
a00005d8:	00f12823          	sw	a5,16(sp)
a00005dc:	f8f71ee3          	bne	a4,a5,a0000578 <game_of_life+0xcc>
a00005e0:	00031737          	lui	a4,0x31
a00005e4:	d4070793          	addi	a5,a4,-704 # 30d40 <_entry_offset+0x30d40>
a00005e8:	00f12423          	sw	a5,8(sp)
a00005ec:	00412403          	lw	s0,4(sp)
a00005f0:	00040513          	mv	a0,s0
a00005f4:	b3dff0ef          	jal	ra,a0000130 <show>
a00005f8:	00040513          	mv	a0,s0
a00005fc:	d09ff0ef          	jal	ra,a0000304 <evolve>
a0000600:	00048593          	mv	a1,s1
a0000604:	00600513          	li	a0,6
a0000608:	649020ef          	jal	ra,a0003450 <ioe_read>
a000060c:	00812783          	lw	a5,8(sp)
a0000610:	0004a403          	lw	s0,0(s1)
a0000614:	0044a703          	lw	a4,4(s1)
a0000618:	00f407b3          	add	a5,s0,a5
a000061c:	0087b433          	sltu	s0,a5,s0
a0000620:	00f12023          	sw	a5,0(sp)
a0000624:	00e40433          	add	s0,s0,a4
a0000628:	00048593          	mv	a1,s1
a000062c:	00600513          	li	a0,6
a0000630:	621020ef          	jal	ra,a0003450 <ioe_read>
a0000634:	0044a703          	lw	a4,4(s1)
a0000638:	0004a683          	lw	a3,0(s1)
a000063c:	fe8766e3          	bltu	a4,s0,a0000628 <game_of_life+0x17c>
a0000640:	fae416e3          	bne	s0,a4,a00005ec <game_of_life+0x140>
a0000644:	00012783          	lw	a5,0(sp)
a0000648:	fef6e0e3          	bltu	a3,a5,a0000628 <game_of_life+0x17c>
a000064c:	fa1ff06f          	j	a00005ec <game_of_life+0x140>

a0000650 <ant>:
a0000650:	fa410113          	addi	sp,sp,-92
a0000654:	04b10793          	addi	a5,sp,75
a0000658:	ff87f793          	andi	a5,a5,-8
a000065c:	02c10593          	addi	a1,sp,44
a0000660:	00900513          	li	a0,9
a0000664:	04112c23          	sw	ra,88(sp)
a0000668:	04812a23          	sw	s0,84(sp)
a000066c:	04912823          	sw	s1,80(sp)
a0000670:	02f12423          	sw	a5,40(sp)
a0000674:	5dd020ef          	jal	ra,a0003450 <ioe_read>
a0000678:	03012703          	lw	a4,48(sp)
a000067c:	00009417          	auipc	s0,0x9
a0000680:	cf040413          	addi	s0,s0,-784 # a000936c <w>
a0000684:	02c10593          	addi	a1,sp,44
a0000688:	41f75793          	srai	a5,a4,0x1f
a000068c:	0037f793          	andi	a5,a5,3
a0000690:	00e787b3          	add	a5,a5,a4
a0000694:	4027d793          	srai	a5,a5,0x2
a0000698:	00900513          	li	a0,9
a000069c:	00f42023          	sw	a5,0(s0)
a00006a0:	5b1020ef          	jal	ra,a0003450 <ioe_read>
a00006a4:	03412603          	lw	a2,52(sp)
a00006a8:	00042583          	lw	a1,0(s0)
a00006ac:	00000413          	li	s0,0
a00006b0:	41f65793          	srai	a5,a2,0x1f
a00006b4:	0037f713          	andi	a4,a5,3
a00006b8:	00c70733          	add	a4,a4,a2
a00006bc:	40275713          	srai	a4,a4,0x2
a00006c0:	02e584b3          	mul	s1,a1,a4
a00006c4:	01f5d693          	srli	a3,a1,0x1f
a00006c8:	0077f793          	andi	a5,a5,7
a00006cc:	00b686b3          	add	a3,a3,a1
a00006d0:	00c787b3          	add	a5,a5,a2
a00006d4:	00009617          	auipc	a2,0x9
a00006d8:	c9060613          	addi	a2,a2,-880 # a0009364 <h>
a00006dc:	00e62023          	sw	a4,0(a2)
a00006e0:	4037d793          	srai	a5,a5,0x3
a00006e4:	4016d713          	srai	a4,a3,0x1
a00006e8:	00e12423          	sw	a4,8(sp)
a00006ec:	00048513          	mv	a0,s1
a00006f0:	00f12623          	sw	a5,12(sp)
a00006f4:	061030ef          	jal	ra,a0003f54 <malloc>
a00006f8:	00048613          	mv	a2,s1
a00006fc:	0000d797          	auipc	a5,0xd
a0000700:	39878793          	addi	a5,a5,920 # a000da94 <pix>
a0000704:	00000593          	li	a1,0
a0000708:	00a7a023          	sw	a0,0(a5)
a000070c:	19000493          	li	s1,400
a0000710:	1e0030ef          	jal	ra,a00038f0 <memset>
a0000714:	00009797          	auipc	a5,0x9
a0000718:	52c78793          	addi	a5,a5,1324 # a0009c40 <buf.2>
a000071c:	02f12a23          	sw	a5,52(sp)
a0000720:	02c10593          	addi	a1,sp,44
a0000724:	00100793          	li	a5,1
a0000728:	00b00513          	li	a0,11
a000072c:	02812823          	sw	s0,48(sp)
a0000730:	02f12e23          	sw	a5,60(sp)
a0000734:	02012623          	sw	zero,44(sp)
a0000738:	02912c23          	sw	s1,56(sp)
a000073c:	04010023          	sb	zero,64(sp)
a0000740:	52d020ef          	jal	ra,a000346c <ioe_write>
a0000744:	00140413          	addi	s0,s0,1
a0000748:	12c00793          	li	a5,300
a000074c:	fcf414e3          	bne	s0,a5,a0000714 <ant+0xc4>
a0000750:	00100793          	li	a5,1
a0000754:	00f12a23          	sw	a5,20(sp)
a0000758:	00c12783          	lw	a5,12(sp)
a000075c:	00012823          	sw	zero,16(sp)
a0000760:	00178793          	addi	a5,a5,1
a0000764:	00f12e23          	sw	a5,28(sp)
a0000768:	00812783          	lw	a5,8(sp)
a000076c:	00178793          	addi	a5,a5,1
a0000770:	00f12c23          	sw	a5,24(sp)
a0000774:	00009797          	auipc	a5,0x9
a0000778:	bf878793          	addi	a5,a5,-1032 # a000936c <w>
a000077c:	0007a703          	lw	a4,0(a5)
a0000780:	00c12603          	lw	a2,12(sp)
a0000784:	0000d797          	auipc	a5,0xd
a0000788:	31078793          	addi	a5,a5,784 # a000da94 <pix>
a000078c:	0007a783          	lw	a5,0(a5)
a0000790:	02e60733          	mul	a4,a2,a4
a0000794:	00812603          	lw	a2,8(sp)
a0000798:	00009697          	auipc	a3,0x9
a000079c:	bd068693          	addi	a3,a3,-1072 # a0009368 <last_c.1>
a00007a0:	0006c683          	lbu	a3,0(a3)
a00007a4:	00c70733          	add	a4,a4,a2
a00007a8:	00e787b3          	add	a5,a5,a4
a00007ac:	0007c703          	lbu	a4,0(a5)
a00007b0:	20070a63          	beqz	a4,a00009c4 <ant+0x374>
a00007b4:	00078023          	sb	zero,0(a5)
a00007b8:	01412783          	lw	a5,20(sp)
a00007bc:	02000713          	li	a4,32
a00007c0:	40f007b3          	neg	a5,a5
a00007c4:	3ee68863          	beq	a3,a4,a0000bb4 <ant+0x564>
a00007c8:	01012703          	lw	a4,16(sp)
a00007cc:	02000693          	li	a3,32
a00007d0:	00f12823          	sw	a5,16(sp)
a00007d4:	00e12a23          	sw	a4,20(sp)
a00007d8:	00000713          	li	a4,0
a00007dc:	00009797          	auipc	a5,0x9
a00007e0:	b8c78793          	addi	a5,a5,-1140 # a0009368 <last_c.1>
a00007e4:	00d78023          	sb	a3,0(a5)
a00007e8:	00009797          	auipc	a5,0x9
a00007ec:	41878793          	addi	a5,a5,1048 # a0009c00 <buf.0>
a00007f0:	00e7a023          	sw	a4,0(a5)
a00007f4:	00009697          	auipc	a3,0x9
a00007f8:	44c68693          	addi	a3,a3,1100 # a0009c40 <buf.2>
a00007fc:	00478793          	addi	a5,a5,4
a0000800:	fed798e3          	bne	a5,a3,a00007f0 <ant+0x1a0>
a0000804:	01812703          	lw	a4,24(sp)
a0000808:	00400793          	li	a5,4
a000080c:	00812603          	lw	a2,8(sp)
a0000810:	00271693          	slli	a3,a4,0x2
a0000814:	01c12703          	lw	a4,28(sp)
a0000818:	01012303          	lw	t1,16(sp)
a000081c:	02f12c23          	sw	a5,56(sp)
a0000820:	00271713          	slli	a4,a4,0x2
a0000824:	02e12823          	sw	a4,48(sp)
a0000828:	00009717          	auipc	a4,0x9
a000082c:	3d870713          	addi	a4,a4,984 # a0009c00 <buf.0>
a0000830:	02e12a23          	sw	a4,52(sp)
a0000834:	02f12e23          	sw	a5,60(sp)
a0000838:	01412703          	lw	a4,20(sp)
a000083c:	00c12783          	lw	a5,12(sp)
a0000840:	00660433          	add	s0,a2,t1
a0000844:	02c10593          	addi	a1,sp,44
a0000848:	00e787b3          	add	a5,a5,a4
a000084c:	00b00513          	li	a0,11
a0000850:	00f12623          	sw	a5,12(sp)
a0000854:	00812423          	sw	s0,8(sp)
a0000858:	02d12623          	sw	a3,44(sp)
a000085c:	04010023          	sb	zero,64(sp)
a0000860:	40d020ef          	jal	ra,a000346c <ioe_write>
a0000864:	00009797          	auipc	a5,0x9
a0000868:	b0878793          	addi	a5,a5,-1272 # a000936c <w>
a000086c:	0007a703          	lw	a4,0(a5)
a0000870:	00009797          	auipc	a5,0x9
a0000874:	af478793          	addi	a5,a5,-1292 # a0009364 <h>
a0000878:	0007a483          	lw	s1,0(a5)
a000087c:	42044a63          	bltz	s0,a0000cb0 <ant+0x660>
a0000880:	00812783          	lw	a5,8(sp)
a0000884:	3ae7d463          	bge	a5,a4,a0000c2c <ant+0x5dc>
a0000888:	00812783          	lw	a5,8(sp)
a000088c:	00178793          	addi	a5,a5,1
a0000890:	00f12c23          	sw	a5,24(sp)
a0000894:	02f12023          	sw	a5,32(sp)
a0000898:	00c12783          	lw	a5,12(sp)
a000089c:	1497de63          	bge	a5,s1,a00009f8 <ant+0x3a8>
a00008a0:	00c12683          	lw	a3,12(sp)
a00008a4:	00168793          	addi	a5,a3,1
a00008a8:	00f12e23          	sw	a5,28(sp)
a00008ac:	02f12223          	sw	a5,36(sp)
a00008b0:	3206c263          	bltz	a3,a0000bd4 <ant+0x584>
a00008b4:	00009797          	auipc	a5,0x9
a00008b8:	ab478793          	addi	a5,a5,-1356 # a0009368 <last_c.1>
a00008bc:	0007c703          	lbu	a4,0(a5)
a00008c0:	02b00793          	li	a5,43
a00008c4:	02f70a63          	beq	a4,a5,a00008f8 <ant+0x2a8>
a00008c8:	00009717          	auipc	a4,0x9
a00008cc:	aa070713          	addi	a4,a4,-1376 # a0009368 <last_c.1>
a00008d0:	00f70023          	sb	a5,0(a4)
a00008d4:	0033a737          	lui	a4,0x33a
a00008d8:	00009797          	auipc	a5,0x9
a00008dc:	32878793          	addi	a5,a5,808 # a0009c00 <buf.0>
a00008e0:	99970713          	addi	a4,a4,-1639 # 339999 <_entry_offset+0x339999>
a00008e4:	00e7a023          	sw	a4,0(a5)
a00008e8:	00009697          	auipc	a3,0x9
a00008ec:	35868693          	addi	a3,a3,856 # a0009c40 <buf.2>
a00008f0:	00478793          	addi	a5,a5,4
a00008f4:	fed798e3          	bne	a5,a3,a00008e4 <ant+0x294>
a00008f8:	02012703          	lw	a4,32(sp)
a00008fc:	00400793          	li	a5,4
a0000900:	02c10593          	addi	a1,sp,44
a0000904:	00271693          	slli	a3,a4,0x2
a0000908:	02412703          	lw	a4,36(sp)
a000090c:	00b00513          	li	a0,11
a0000910:	02d12623          	sw	a3,44(sp)
a0000914:	00271713          	slli	a4,a4,0x2
a0000918:	02e12823          	sw	a4,48(sp)
a000091c:	00009717          	auipc	a4,0x9
a0000920:	2e470713          	addi	a4,a4,740 # a0009c00 <buf.0>
a0000924:	02e12a23          	sw	a4,52(sp)
a0000928:	02f12c23          	sw	a5,56(sp)
a000092c:	02f12e23          	sw	a5,60(sp)
a0000930:	04010023          	sb	zero,64(sp)
a0000934:	339020ef          	jal	ra,a000346c <ioe_write>
a0000938:	00100793          	li	a5,1
a000093c:	00b00513          	li	a0,11
a0000940:	02c10593          	addi	a1,sp,44
a0000944:	04f10023          	sb	a5,64(sp)
a0000948:	02012623          	sw	zero,44(sp)
a000094c:	02012823          	sw	zero,48(sp)
a0000950:	02012a23          	sw	zero,52(sp)
a0000954:	02012c23          	sw	zero,56(sp)
a0000958:	02012e23          	sw	zero,60(sp)
a000095c:	311020ef          	jal	ra,a000346c <ioe_write>
a0000960:	02812403          	lw	s0,40(sp)
a0000964:	00600513          	li	a0,6
a0000968:	00040593          	mv	a1,s0
a000096c:	2e5020ef          	jal	ra,a0003450 <ioe_read>
a0000970:	00042783          	lw	a5,0(s0)
a0000974:	00002737          	lui	a4,0x2
a0000978:	00442683          	lw	a3,4(s0)
a000097c:	71070713          	addi	a4,a4,1808 # 2710 <_entry_offset+0x2710>
a0000980:	00e784b3          	add	s1,a5,a4
a0000984:	00f4b7b3          	sltu	a5,s1,a5
a0000988:	00040613          	mv	a2,s0
a000098c:	00d78433          	add	s0,a5,a3
a0000990:	00912023          	sw	s1,0(sp)
a0000994:	00040493          	mv	s1,s0
a0000998:	00060413          	mv	s0,a2
a000099c:	00040593          	mv	a1,s0
a00009a0:	00600513          	li	a0,6
a00009a4:	2ad020ef          	jal	ra,a0003450 <ioe_read>
a00009a8:	00442783          	lw	a5,4(s0)
a00009ac:	00042683          	lw	a3,0(s0)
a00009b0:	fe97e6e3          	bltu	a5,s1,a000099c <ant+0x34c>
a00009b4:	dcf490e3          	bne	s1,a5,a0000774 <ant+0x124>
a00009b8:	00012783          	lw	a5,0(sp)
a00009bc:	fef6e0e3          	bltu	a3,a5,a000099c <ant+0x34c>
a00009c0:	db5ff06f          	j	a0000774 <ant+0x124>
a00009c4:	00100713          	li	a4,1
a00009c8:	00e78023          	sb	a4,0(a5)
a00009cc:	01012783          	lw	a5,16(sp)
a00009d0:	06f00713          	li	a4,111
a00009d4:	40f007b3          	neg	a5,a5
a00009d8:	1ee68663          	beq	a3,a4,a0000bc4 <ant+0x574>
a00009dc:	01412703          	lw	a4,20(sp)
a00009e0:	06f00693          	li	a3,111
a00009e4:	00f12a23          	sw	a5,20(sp)
a00009e8:	00e12823          	sw	a4,16(sp)
a00009ec:	00cc6737          	lui	a4,0xcc6
a00009f0:	63370713          	addi	a4,a4,1587 # cc6633 <_entry_offset+0xcc6633>
a00009f4:	de9ff06f          	j	a00007dc <ant+0x18c>
a00009f8:	0000d797          	auipc	a5,0xd
a00009fc:	09c78793          	addi	a5,a5,156 # a000da94 <pix>
a0000a00:	0007a403          	lw	s0,0(a5)
a0000a04:	fff48493          	addi	s1,s1,-1
a0000a08:	02e484b3          	mul	s1,s1,a4
a0000a0c:	00c12783          	lw	a5,12(sp)
a0000a10:	00e405b3          	add	a1,s0,a4
a0000a14:	00040513          	mv	a0,s0
a0000a18:	02f12223          	sw	a5,36(sp)
a0000a1c:	fff78793          	addi	a5,a5,-1
a0000a20:	00f12623          	sw	a5,12(sp)
a0000a24:	00178793          	addi	a5,a5,1
a0000a28:	00e12023          	sw	a4,0(sp)
a0000a2c:	00f12e23          	sw	a5,28(sp)
a0000a30:	00048613          	mv	a2,s1
a0000a34:	6dd020ef          	jal	ra,a0003910 <memmove>
a0000a38:	00012703          	lw	a4,0(sp)
a0000a3c:	00000593          	li	a1,0
a0000a40:	00940533          	add	a0,s0,s1
a0000a44:	00070613          	mv	a2,a4
a0000a48:	6a9020ef          	jal	ra,a00038f0 <memset>
a0000a4c:	00000493          	li	s1,0
a0000a50:	19000413          	li	s0,400
a0000a54:	00009797          	auipc	a5,0x9
a0000a58:	1ec78793          	addi	a5,a5,492 # a0009c40 <buf.2>
a0000a5c:	02f12a23          	sw	a5,52(sp)
a0000a60:	02c10593          	addi	a1,sp,44
a0000a64:	00100793          	li	a5,1
a0000a68:	00b00513          	li	a0,11
a0000a6c:	02912823          	sw	s1,48(sp)
a0000a70:	02f12e23          	sw	a5,60(sp)
a0000a74:	02012623          	sw	zero,44(sp)
a0000a78:	02812c23          	sw	s0,56(sp)
a0000a7c:	04010023          	sb	zero,64(sp)
a0000a80:	1ed020ef          	jal	ra,a000346c <ioe_write>
a0000a84:	00148493          	addi	s1,s1,1
a0000a88:	12c00793          	li	a5,300
a0000a8c:	fcf494e3          	bne	s1,a5,a0000a54 <ant+0x404>
a0000a90:	00009797          	auipc	a5,0x9
a0000a94:	8d478793          	addi	a5,a5,-1836 # a0009364 <h>
a0000a98:	0007a783          	lw	a5,0(a5)
a0000a9c:	00012223          	sw	zero,4(sp)
a0000aa0:	00000493          	li	s1,0
a0000aa4:	e0f058e3          	blez	a5,a00008b4 <ant+0x264>
a0000aa8:	00009797          	auipc	a5,0x9
a0000aac:	8c478793          	addi	a5,a5,-1852 # a000936c <w>
a0000ab0:	0007a703          	lw	a4,0(a5)
a0000ab4:	00412783          	lw	a5,4(sp)
a0000ab8:	00000413          	li	s0,0
a0000abc:	00279793          	slli	a5,a5,0x2
a0000ac0:	00f12023          	sw	a5,0(sp)
a0000ac4:	0ae05e63          	blez	a4,a0000b80 <ant+0x530>
a0000ac8:	00048793          	mv	a5,s1
a0000acc:	00040493          	mv	s1,s0
a0000ad0:	00078413          	mv	s0,a5
a0000ad4:	0000d797          	auipc	a5,0xd
a0000ad8:	fc078793          	addi	a5,a5,-64 # a000da94 <pix>
a0000adc:	0007a783          	lw	a5,0(a5)
a0000ae0:	00009717          	auipc	a4,0x9
a0000ae4:	88870713          	addi	a4,a4,-1912 # a0009368 <last_c.1>
a0000ae8:	00074603          	lbu	a2,0(a4)
a0000aec:	008787b3          	add	a5,a5,s0
a0000af0:	0007c783          	lbu	a5,0(a5)
a0000af4:	0a079663          	bnez	a5,a0000ba0 <ant+0x550>
a0000af8:	02000793          	li	a5,32
a0000afc:	00000693          	li	a3,0
a0000b00:	02f60663          	beq	a2,a5,a0000b2c <ant+0x4dc>
a0000b04:	00009717          	auipc	a4,0x9
a0000b08:	86470713          	addi	a4,a4,-1948 # a0009368 <last_c.1>
a0000b0c:	00f70023          	sb	a5,0(a4)
a0000b10:	00009797          	auipc	a5,0x9
a0000b14:	0f078793          	addi	a5,a5,240 # a0009c00 <buf.0>
a0000b18:	00d7a023          	sw	a3,0(a5)
a0000b1c:	00009717          	auipc	a4,0x9
a0000b20:	12470713          	addi	a4,a4,292 # a0009c40 <buf.2>
a0000b24:	00478793          	addi	a5,a5,4
a0000b28:	fef718e3          	bne	a4,a5,a0000b18 <ant+0x4c8>
a0000b2c:	00012703          	lw	a4,0(sp)
a0000b30:	00400793          	li	a5,4
a0000b34:	00249693          	slli	a3,s1,0x2
a0000b38:	02e12823          	sw	a4,48(sp)
a0000b3c:	02c10593          	addi	a1,sp,44
a0000b40:	00009717          	auipc	a4,0x9
a0000b44:	0c070713          	addi	a4,a4,192 # a0009c00 <buf.0>
a0000b48:	00b00513          	li	a0,11
a0000b4c:	02f12c23          	sw	a5,56(sp)
a0000b50:	02f12e23          	sw	a5,60(sp)
a0000b54:	02d12623          	sw	a3,44(sp)
a0000b58:	02e12a23          	sw	a4,52(sp)
a0000b5c:	04010023          	sb	zero,64(sp)
a0000b60:	10d020ef          	jal	ra,a000346c <ioe_write>
a0000b64:	00009797          	auipc	a5,0x9
a0000b68:	80878793          	addi	a5,a5,-2040 # a000936c <w>
a0000b6c:	0007a783          	lw	a5,0(a5)
a0000b70:	00148493          	addi	s1,s1,1
a0000b74:	00140413          	addi	s0,s0,1
a0000b78:	f4f4cee3          	blt	s1,a5,a0000ad4 <ant+0x484>
a0000b7c:	00040493          	mv	s1,s0
a0000b80:	00412703          	lw	a4,4(sp)
a0000b84:	00008797          	auipc	a5,0x8
a0000b88:	7e078793          	addi	a5,a5,2016 # a0009364 <h>
a0000b8c:	0007a783          	lw	a5,0(a5)
a0000b90:	00170713          	addi	a4,a4,1
a0000b94:	00e12223          	sw	a4,4(sp)
a0000b98:	f0f748e3          	blt	a4,a5,a0000aa8 <ant+0x458>
a0000b9c:	d19ff06f          	j	a00008b4 <ant+0x264>
a0000ba0:	02300793          	li	a5,35
a0000ba4:	f8f604e3          	beq	a2,a5,a0000b2c <ant+0x4dc>
a0000ba8:	003366b7          	lui	a3,0x336
a0000bac:	60068693          	addi	a3,a3,1536 # 336600 <_entry_offset+0x336600>
a0000bb0:	f55ff06f          	j	a0000b04 <ant+0x4b4>
a0000bb4:	01012703          	lw	a4,16(sp)
a0000bb8:	00f12823          	sw	a5,16(sp)
a0000bbc:	00e12a23          	sw	a4,20(sp)
a0000bc0:	c45ff06f          	j	a0000804 <ant+0x1b4>
a0000bc4:	01412703          	lw	a4,20(sp)
a0000bc8:	00f12a23          	sw	a5,20(sp)
a0000bcc:	00e12823          	sw	a4,16(sp)
a0000bd0:	c35ff06f          	j	a0000804 <ant+0x1b4>
a0000bd4:	0000d797          	auipc	a5,0xd
a0000bd8:	ec078793          	addi	a5,a5,-320 # a000da94 <pix>
a0000bdc:	0007a403          	lw	s0,0(a5)
a0000be0:	fff48613          	addi	a2,s1,-1
a0000be4:	02e60633          	mul	a2,a2,a4
a0000be8:	00c12783          	lw	a5,12(sp)
a0000bec:	00e40533          	add	a0,s0,a4
a0000bf0:	00e12023          	sw	a4,0(sp)
a0000bf4:	00278713          	addi	a4,a5,2
a0000bf8:	00178793          	addi	a5,a5,1
a0000bfc:	00040593          	mv	a1,s0
a0000c00:	00f12623          	sw	a5,12(sp)
a0000c04:	00178793          	addi	a5,a5,1
a0000c08:	02e12223          	sw	a4,36(sp)
a0000c0c:	00f12e23          	sw	a5,28(sp)
a0000c10:	501020ef          	jal	ra,a0003910 <memmove>
a0000c14:	00012703          	lw	a4,0(sp)
a0000c18:	00000593          	li	a1,0
a0000c1c:	00040513          	mv	a0,s0
a0000c20:	00070613          	mv	a2,a4
a0000c24:	4cd020ef          	jal	ra,a00038f0 <memset>
a0000c28:	e25ff06f          	j	a0000a4c <ant+0x3fc>
a0000c2c:	029706b3          	mul	a3,a4,s1
a0000c30:	0000d797          	auipc	a5,0xd
a0000c34:	e6478793          	addi	a5,a5,-412 # a000da94 <pix>
a0000c38:	0007a403          	lw	s0,0(a5)
a0000c3c:	00e12223          	sw	a4,4(sp)
a0000c40:	00140593          	addi	a1,s0,1
a0000c44:	00040513          	mv	a0,s0
a0000c48:	fff68613          	addi	a2,a3,-1
a0000c4c:	00d12023          	sw	a3,0(sp)
a0000c50:	4c1020ef          	jal	ra,a0003910 <memmove>
a0000c54:	00412703          	lw	a4,4(sp)
a0000c58:	00012683          	lw	a3,0(sp)
a0000c5c:	fff70793          	addi	a5,a4,-1
a0000c60:	00d7da63          	bge	a5,a3,a0000c74 <ant+0x624>
a0000c64:	00f40633          	add	a2,s0,a5
a0000c68:	00060023          	sb	zero,0(a2)
a0000c6c:	00e787b3          	add	a5,a5,a4
a0000c70:	fed7cae3          	blt	a5,a3,a0000c64 <ant+0x614>
a0000c74:	00812783          	lw	a5,8(sp)
a0000c78:	00c12683          	lw	a3,12(sp)
a0000c7c:	fff78793          	addi	a5,a5,-1
a0000c80:	0a96da63          	bge	a3,s1,a0000d34 <ant+0x6e4>
a0000c84:	00c12683          	lw	a3,12(sp)
a0000c88:	0c06c263          	bltz	a3,a0000d4c <ant+0x6fc>
a0000c8c:	00168713          	addi	a4,a3,1
a0000c90:	00812683          	lw	a3,8(sp)
a0000c94:	00f12423          	sw	a5,8(sp)
a0000c98:	00178793          	addi	a5,a5,1
a0000c9c:	00e12e23          	sw	a4,28(sp)
a0000ca0:	02d12023          	sw	a3,32(sp)
a0000ca4:	02e12223          	sw	a4,36(sp)
a0000ca8:	00f12c23          	sw	a5,24(sp)
a0000cac:	da1ff06f          	j	a0000a4c <ant+0x3fc>
a0000cb0:	029706b3          	mul	a3,a4,s1
a0000cb4:	0000d797          	auipc	a5,0xd
a0000cb8:	de078793          	addi	a5,a5,-544 # a000da94 <pix>
a0000cbc:	0007a403          	lw	s0,0(a5)
a0000cc0:	00e12223          	sw	a4,4(sp)
a0000cc4:	00040593          	mv	a1,s0
a0000cc8:	00140513          	addi	a0,s0,1
a0000ccc:	fff68613          	addi	a2,a3,-1
a0000cd0:	00d12023          	sw	a3,0(sp)
a0000cd4:	43d020ef          	jal	ra,a0003910 <memmove>
a0000cd8:	00012683          	lw	a3,0(sp)
a0000cdc:	00412703          	lw	a4,4(sp)
a0000ce0:	00000793          	li	a5,0
a0000ce4:	00d05a63          	blez	a3,a0000cf8 <ant+0x6a8>
a0000ce8:	00f40633          	add	a2,s0,a5
a0000cec:	00060023          	sb	zero,0(a2)
a0000cf0:	00e787b3          	add	a5,a5,a4
a0000cf4:	fed7cae3          	blt	a5,a3,a0000ce8 <ant+0x698>
a0000cf8:	00812683          	lw	a3,8(sp)
a0000cfc:	00168793          	addi	a5,a3,1
a0000d00:	00268693          	addi	a3,a3,2
a0000d04:	02d12023          	sw	a3,32(sp)
a0000d08:	00c12683          	lw	a3,12(sp)
a0000d0c:	0296d863          	bge	a3,s1,a0000d3c <ant+0x6ec>
a0000d10:	00c12683          	lw	a3,12(sp)
a0000d14:	0406c863          	bltz	a3,a0000d64 <ant+0x714>
a0000d18:	00168713          	addi	a4,a3,1
a0000d1c:	00f12423          	sw	a5,8(sp)
a0000d20:	00178793          	addi	a5,a5,1
a0000d24:	00e12e23          	sw	a4,28(sp)
a0000d28:	02e12223          	sw	a4,36(sp)
a0000d2c:	00f12c23          	sw	a5,24(sp)
a0000d30:	d1dff06f          	j	a0000a4c <ant+0x3fc>
a0000d34:	00812683          	lw	a3,8(sp)
a0000d38:	02d12023          	sw	a3,32(sp)
a0000d3c:	00f12423          	sw	a5,8(sp)
a0000d40:	00178793          	addi	a5,a5,1
a0000d44:	00f12c23          	sw	a5,24(sp)
a0000d48:	cbdff06f          	j	a0000a04 <ant+0x3b4>
a0000d4c:	00812683          	lw	a3,8(sp)
a0000d50:	00f12423          	sw	a5,8(sp)
a0000d54:	00178793          	addi	a5,a5,1
a0000d58:	02d12023          	sw	a3,32(sp)
a0000d5c:	00f12c23          	sw	a5,24(sp)
a0000d60:	e81ff06f          	j	a0000be0 <ant+0x590>
a0000d64:	00f12423          	sw	a5,8(sp)
a0000d68:	00178793          	addi	a5,a5,1
a0000d6c:	00f12c23          	sw	a5,24(sp)
a0000d70:	e71ff06f          	j	a0000be0 <ant+0x590>

a0000d74 <text>:
a0000d74:	00459593          	slli	a1,a1,0x4
a0000d78:	fcc10113          	addi	sp,sp,-52
a0000d7c:	00858593          	addi	a1,a1,8
a0000d80:	00d12223          	sw	a3,4(sp)
a0000d84:	40c586b3          	sub	a3,a1,a2
a0000d88:	00800713          	li	a4,8
a0000d8c:	02112823          	sw	ra,48(sp)
a0000d90:	02812623          	sw	s0,44(sp)
a0000d94:	02912423          	sw	s1,40(sp)
a0000d98:	00d12023          	sw	a3,0(sp)
a0000d9c:	40a70733          	sub	a4,a4,a0
a0000da0:	14060063          	beqz	a2,a0000ee0 <text+0x16c>
a0000da4:	00271713          	slli	a4,a4,0x2
a0000da8:	00e12423          	sw	a4,8(sp)
a0000dac:	00c12623          	sw	a2,12(sp)
a0000db0:	00412783          	lw	a5,4(sp)
a0000db4:	0007c783          	lbu	a5,0(a5)
a0000db8:	10078c63          	beqz	a5,a0000ed0 <text+0x15c>
a0000dbc:	00012483          	lw	s1,0(sp)
a0000dc0:	0000a417          	auipc	s0,0xa
a0000dc4:	b4040413          	addi	s0,s0,-1216 # a000a900 <t>
a0000dc8:	00008697          	auipc	a3,0x8
a0000dcc:	5a868693          	addi	a3,a3,1448 # a0009370 <last_c.2>
a0000dd0:	0006c703          	lbu	a4,0(a3)
a0000dd4:	00148493          	addi	s1,s1,1
a0000dd8:	0af70063          	beq	a4,a5,a0000e78 <text+0x104>
a0000ddc:	00f68023          	sb	a5,0(a3)
a0000de0:	02000613          	li	a2,32
a0000de4:	00000713          	li	a4,0
a0000de8:	06c78e63          	beq	a5,a2,a0000e64 <text+0xf0>
a0000dec:	01900713          	li	a4,25
a0000df0:	02e7d733          	divu	a4,a5,a4
a0000df4:	00500593          	li	a1,5
a0000df8:	00371613          	slli	a2,a4,0x3
a0000dfc:	40e60633          	sub	a2,a2,a4
a0000e00:	00561513          	slli	a0,a2,0x5
a0000e04:	00a60633          	add	a2,a2,a0
a0000e08:	00c787b3          	add	a5,a5,a2
a0000e0c:	0ff7f793          	zext.b	a5,a5
a0000e10:	02b7d633          	divu	a2,a5,a1
a0000e14:	00871713          	slli	a4,a4,0x8
a0000e18:	00261513          	slli	a0,a2,0x2
a0000e1c:	00a60533          	add	a0,a2,a0
a0000e20:	40a787b3          	sub	a5,a5,a0
a0000e24:	00861613          	slli	a2,a2,0x8
a0000e28:	02b74733          	div	a4,a4,a1
a0000e2c:	0ff7f793          	zext.b	a5,a5
a0000e30:	00879793          	slli	a5,a5,0x8
a0000e34:	00ff0537          	lui	a0,0xff0
a0000e38:	02b64633          	div	a2,a2,a1
a0000e3c:	01071713          	slli	a4,a4,0x10
a0000e40:	00a77733          	and	a4,a4,a0
a0000e44:	02b7c7b3          	div	a5,a5,a1
a0000e48:	000105b7          	lui	a1,0x10
a0000e4c:	00861613          	slli	a2,a2,0x8
a0000e50:	fff58593          	addi	a1,a1,-1 # ffff <_entry_offset+0xffff>
a0000e54:	00b67633          	and	a2,a2,a1
a0000e58:	00c76733          	or	a4,a4,a2
a0000e5c:	0ff7f793          	zext.b	a5,a5
a0000e60:	00f76733          	or	a4,a4,a5
a0000e64:	0000a797          	auipc	a5,0xa
a0000e68:	a5c78793          	addi	a5,a5,-1444 # a000a8c0 <buf.1>
a0000e6c:	00e7a023          	sw	a4,0(a5)
a0000e70:	00478793          	addi	a5,a5,4
a0000e74:	fe879ce3          	bne	a5,s0,a0000e6c <text+0xf8>
a0000e78:	00249793          	slli	a5,s1,0x2
a0000e7c:	ffc78793          	addi	a5,a5,-4
a0000e80:	00f12823          	sw	a5,16(sp)
a0000e84:	00812783          	lw	a5,8(sp)
a0000e88:	00400713          	li	a4,4
a0000e8c:	01010593          	addi	a1,sp,16
a0000e90:	00f12a23          	sw	a5,20(sp)
a0000e94:	00b00513          	li	a0,11
a0000e98:	0000a797          	auipc	a5,0xa
a0000e9c:	a2878793          	addi	a5,a5,-1496 # a000a8c0 <buf.1>
a0000ea0:	00f12c23          	sw	a5,24(sp)
a0000ea4:	00e12e23          	sw	a4,28(sp)
a0000ea8:	02e12023          	sw	a4,32(sp)
a0000eac:	02010223          	sb	zero,36(sp)
a0000eb0:	5bc020ef          	jal	ra,a000346c <ioe_write>
a0000eb4:	00012783          	lw	a5,0(sp)
a0000eb8:	00412703          	lw	a4,4(sp)
a0000ebc:	40f487b3          	sub	a5,s1,a5
a0000ec0:	00f707b3          	add	a5,a4,a5
a0000ec4:	0007c783          	lbu	a5,0(a5)
a0000ec8:	f00790e3          	bnez	a5,a0000dc8 <text+0x54>
a0000ecc:	00912023          	sw	s1,0(sp)
a0000ed0:	00c12783          	lw	a5,12(sp)
a0000ed4:	fff78793          	addi	a5,a5,-1
a0000ed8:	00f12623          	sw	a5,12(sp)
a0000edc:	ec079ae3          	bnez	a5,a0000db0 <text+0x3c>
a0000ee0:	03012083          	lw	ra,48(sp)
a0000ee4:	02c12403          	lw	s0,44(sp)
a0000ee8:	02812483          	lw	s1,40(sp)
a0000eec:	03410113          	addi	sp,sp,52
a0000ef0:	00008067          	ret

a0000ef4 <add_disk>:
a0000ef4:	00251693          	slli	a3,a0,0x2
a0000ef8:	0000a717          	auipc	a4,0xa
a0000efc:	a0870713          	addi	a4,a4,-1528 # a000a900 <t>
a0000f00:	00d70733          	add	a4,a4,a3
a0000f04:	00072703          	lw	a4,0(a4)
a0000f08:	00058613          	mv	a2,a1
a0000f0c:	00050793          	mv	a5,a0
a0000f10:	00472583          	lw	a1,4(a4)
a0000f14:	00072503          	lw	a0,0(a4)
a0000f18:	fcc10113          	addi	sp,sp,-52
a0000f1c:	02112823          	sw	ra,48(sp)
a0000f20:	00158313          	addi	t1,a1,1
a0000f24:	02812623          	sw	s0,44(sp)
a0000f28:	02912423          	sw	s1,40(sp)
a0000f2c:	00259593          	slli	a1,a1,0x2
a0000f30:	00672223          	sw	t1,4(a4)
a0000f34:	00b505b3          	add	a1,a0,a1
a0000f38:	00c5a023          	sw	a2,0(a1)
a0000f3c:	00472503          	lw	a0,4(a4)
a0000f40:	00003697          	auipc	a3,0x3
a0000f44:	6e868693          	addi	a3,a3,1768 # a0004628 <__ctzsi2+0x138>
a0000f48:	00078593          	mv	a1,a5
a0000f4c:	02310793          	addi	a5,sp,35
a0000f50:	ff87f493          	andi	s1,a5,-8
a0000f54:	e21ff0ef          	jal	ra,a0000d74 <text>
a0000f58:	00100713          	li	a4,1
a0000f5c:	00b00513          	li	a0,11
a0000f60:	00410593          	addi	a1,sp,4
a0000f64:	00e10c23          	sb	a4,24(sp)
a0000f68:	00012223          	sw	zero,4(sp)
a0000f6c:	00012423          	sw	zero,8(sp)
a0000f70:	00012623          	sw	zero,12(sp)
a0000f74:	00012823          	sw	zero,16(sp)
a0000f78:	00012a23          	sw	zero,20(sp)
a0000f7c:	4f0020ef          	jal	ra,a000346c <ioe_write>
a0000f80:	00048593          	mv	a1,s1
a0000f84:	00600513          	li	a0,6
a0000f88:	4c8020ef          	jal	ra,a0003450 <ioe_read>
a0000f8c:	0004a403          	lw	s0,0(s1)
a0000f90:	000187b7          	lui	a5,0x18
a0000f94:	0044a703          	lw	a4,4(s1)
a0000f98:	6a078793          	addi	a5,a5,1696 # 186a0 <_entry_offset+0x186a0>
a0000f9c:	00f407b3          	add	a5,s0,a5
a0000fa0:	0087b433          	sltu	s0,a5,s0
a0000fa4:	00f12023          	sw	a5,0(sp)
a0000fa8:	00e40433          	add	s0,s0,a4
a0000fac:	00048593          	mv	a1,s1
a0000fb0:	00600513          	li	a0,6
a0000fb4:	49c020ef          	jal	ra,a0003450 <ioe_read>
a0000fb8:	0044a703          	lw	a4,4(s1)
a0000fbc:	0004a683          	lw	a3,0(s1)
a0000fc0:	fe8766e3          	bltu	a4,s0,a0000fac <add_disk+0xb8>
a0000fc4:	00e41663          	bne	s0,a4,a0000fd0 <add_disk+0xdc>
a0000fc8:	00012783          	lw	a5,0(sp)
a0000fcc:	fef6e0e3          	bltu	a3,a5,a0000fac <add_disk+0xb8>
a0000fd0:	03012083          	lw	ra,48(sp)
a0000fd4:	02c12403          	lw	s0,44(sp)
a0000fd8:	02812483          	lw	s1,40(sp)
a0000fdc:	03410113          	addi	sp,sp,52
a0000fe0:	00008067          	ret

a0000fe4 <move>:
a0000fe4:	0c050463          	beqz	a0,a00010ac <move+0xc8>
a0000fe8:	fe810113          	addi	sp,sp,-24
a0000fec:	00812823          	sw	s0,16(sp)
a0000ff0:	00912623          	sw	s1,12(sp)
a0000ff4:	00112a23          	sw	ra,20(sp)
a0000ff8:	00058413          	mv	s0,a1
a0000ffc:	00068293          	mv	t0,a3
a0001000:	00050793          	mv	a5,a0
a0001004:	00060493          	mv	s1,a2
a0001008:	fff78793          	addi	a5,a5,-1
a000100c:	00028613          	mv	a2,t0
a0001010:	00078513          	mv	a0,a5
a0001014:	00048693          	mv	a3,s1
a0001018:	00040593          	mv	a1,s0
a000101c:	00512423          	sw	t0,8(sp)
a0001020:	00f12223          	sw	a5,4(sp)
a0001024:	fc1ff0ef          	jal	ra,a0000fe4 <move>
a0001028:	0000a797          	auipc	a5,0xa
a000102c:	8d878793          	addi	a5,a5,-1832 # a000a900 <t>
a0001030:	00241713          	slli	a4,s0,0x2
a0001034:	00e78733          	add	a4,a5,a4
a0001038:	00072603          	lw	a2,0(a4)
a000103c:	00003697          	auipc	a3,0x3
a0001040:	5f068693          	addi	a3,a3,1520 # a000462c <__ctzsi2+0x13c>
a0001044:	00040593          	mv	a1,s0
a0001048:	00462503          	lw	a0,4(a2)
a000104c:	00062703          	lw	a4,0(a2)
a0001050:	fff50313          	addi	t1,a0,-1 # feffff <_entry_offset+0xfeffff>
a0001054:	00231393          	slli	t2,t1,0x2
a0001058:	00770733          	add	a4,a4,t2
a000105c:	00662223          	sw	t1,4(a2)
a0001060:	00072603          	lw	a2,0(a4)
a0001064:	00c12023          	sw	a2,0(sp)
a0001068:	d0dff0ef          	jal	ra,a0000d74 <text>
a000106c:	00012603          	lw	a2,0(sp)
a0001070:	00048513          	mv	a0,s1
a0001074:	00060593          	mv	a1,a2
a0001078:	e7dff0ef          	jal	ra,a0000ef4 <add_disk>
a000107c:	00812283          	lw	t0,8(sp)
a0001080:	00412783          	lw	a5,4(sp)
a0001084:	00028713          	mv	a4,t0
a0001088:	00040293          	mv	t0,s0
a000108c:	00078663          	beqz	a5,a0001098 <move+0xb4>
a0001090:	00070413          	mv	s0,a4
a0001094:	f75ff06f          	j	a0001008 <move+0x24>
a0001098:	01412083          	lw	ra,20(sp)
a000109c:	01012403          	lw	s0,16(sp)
a00010a0:	00c12483          	lw	s1,12(sp)
a00010a4:	01810113          	addi	sp,sp,24
a00010a8:	00008067          	ret
a00010ac:	00008067          	ret

a00010b0 <hanoi>:
a00010b0:	fd410113          	addi	sp,sp,-44
a00010b4:	02812223          	sw	s0,36(sp)
a00010b8:	02912023          	sw	s1,32(sp)
a00010bc:	02112423          	sw	ra,40(sp)
a00010c0:	00000413          	li	s0,0
a00010c4:	00009497          	auipc	s1,0x9
a00010c8:	1bc48493          	addi	s1,s1,444 # a000a280 <buf.0>
a00010cc:	00100713          	li	a4,1
a00010d0:	19000793          	li	a5,400
a00010d4:	00810593          	addi	a1,sp,8
a00010d8:	00b00513          	li	a0,11
a00010dc:	00812623          	sw	s0,12(sp)
a00010e0:	00e12c23          	sw	a4,24(sp)
a00010e4:	00012423          	sw	zero,8(sp)
a00010e8:	00912823          	sw	s1,16(sp)
a00010ec:	00f12a23          	sw	a5,20(sp)
a00010f0:	00010e23          	sb	zero,28(sp)
a00010f4:	378020ef          	jal	ra,a000346c <ioe_write>
a00010f8:	00140413          	addi	s0,s0,1
a00010fc:	12c00713          	li	a4,300
a0001100:	fce416e3          	bne	s0,a4,a00010cc <hanoi+0x1c>
a0001104:	00009417          	auipc	s0,0x9
a0001108:	7fc40413          	addi	s0,s0,2044 # a000a900 <t>
a000110c:	02400513          	li	a0,36
a0001110:	645020ef          	jal	ra,a0003f54 <malloc>
a0001114:	02400613          	li	a2,36
a0001118:	00000593          	li	a1,0
a000111c:	00050493          	mv	s1,a0
a0001120:	7d0020ef          	jal	ra,a00038f0 <memset>
a0001124:	00848693          	addi	a3,s1,8
a0001128:	00942023          	sw	s1,0(s0)
a000112c:	00d4a023          	sw	a3,0(s1)
a0001130:	00440413          	addi	s0,s0,4
a0001134:	00009797          	auipc	a5,0x9
a0001138:	7d878793          	addi	a5,a5,2008 # a000a90c <buf.0>
a000113c:	fc8798e3          	bne	a5,s0,a000110c <hanoi+0x5c>
a0001140:	00700493          	li	s1,7
a0001144:	00048593          	mv	a1,s1
a0001148:	00000513          	li	a0,0
a000114c:	fff48493          	addi	s1,s1,-1
a0001150:	da5ff0ef          	jal	ra,a0000ef4 <add_disk>
a0001154:	fe0498e3          	bnez	s1,a0001144 <hanoi+0x94>
a0001158:	00100793          	li	a5,1
a000115c:	00700413          	li	s0,7
a0001160:	fff40413          	addi	s0,s0,-1
a0001164:	00078613          	mv	a2,a5
a0001168:	00048593          	mv	a1,s1
a000116c:	00200693          	li	a3,2
a0001170:	00040513          	mv	a0,s0
a0001174:	00f12223          	sw	a5,4(sp)
a0001178:	e6dff0ef          	jal	ra,a0000fe4 <move>
a000117c:	00009797          	auipc	a5,0x9
a0001180:	78478793          	addi	a5,a5,1924 # a000a900 <t>
a0001184:	00249693          	slli	a3,s1,0x2
a0001188:	00d786b3          	add	a3,a5,a3
a000118c:	0006a283          	lw	t0,0(a3)
a0001190:	00048593          	mv	a1,s1
a0001194:	00003697          	auipc	a3,0x3
a0001198:	49868693          	addi	a3,a3,1176 # a000462c <__ctzsi2+0x13c>
a000119c:	0042a503          	lw	a0,4(t0)
a00011a0:	0002a603          	lw	a2,0(t0)
a00011a4:	fff50393          	addi	t2,a0,-1
a00011a8:	00239093          	slli	ra,t2,0x2
a00011ac:	0072a223          	sw	t2,4(t0)
a00011b0:	00160633          	add	a2,a2,ra
a00011b4:	00062603          	lw	a2,0(a2)
a00011b8:	00c12023          	sw	a2,0(sp)
a00011bc:	bb9ff0ef          	jal	ra,a0000d74 <text>
a00011c0:	00012603          	lw	a2,0(sp)
a00011c4:	00200513          	li	a0,2
a00011c8:	00060593          	mv	a1,a2
a00011cc:	d29ff0ef          	jal	ra,a0000ef4 <add_disk>
a00011d0:	00412783          	lw	a5,4(sp)
a00011d4:	00078693          	mv	a3,a5
a00011d8:	00048793          	mv	a5,s1
a00011dc:	00040663          	beqz	s0,a00011e8 <hanoi+0x138>
a00011e0:	00068493          	mv	s1,a3
a00011e4:	f7dff06f          	j	a0001160 <hanoi+0xb0>
a00011e8:	02812083          	lw	ra,40(sp)
a00011ec:	02412403          	lw	s0,36(sp)
a00011f0:	02012483          	lw	s1,32(sp)
a00011f4:	02c10113          	addi	sp,sp,44
a00011f8:	00008067          	ret

a00011fc <aclock>:
a00011fc:	fc010113          	addi	sp,sp,-64
a0001200:	02f10793          	addi	a5,sp,47
a0001204:	ff87f793          	andi	a5,a5,-8
a0001208:	02912a23          	sw	s1,52(sp)
a000120c:	02112e23          	sw	ra,60(sp)
a0001210:	02812c23          	sw	s0,56(sp)
a0001214:	00f12623          	sw	a5,12(sp)
a0001218:	00009497          	auipc	s1,0x9
a000121c:	73448493          	addi	s1,s1,1844 # a000a94c <buf.2>
a0001220:	01010593          	addi	a1,sp,16
a0001224:	00500513          	li	a0,5
a0001228:	228020ef          	jal	ra,a0003450 <ioe_read>
a000122c:	01c12783          	lw	a5,28(sp)
a0001230:	00000413          	li	s0,0
a0001234:	00f12023          	sw	a5,0(sp)
a0001238:	02012783          	lw	a5,32(sp)
a000123c:	00f12223          	sw	a5,4(sp)
a0001240:	02412783          	lw	a5,36(sp)
a0001244:	00f12423          	sw	a5,8(sp)
a0001248:	00009797          	auipc	a5,0x9
a000124c:	70478793          	addi	a5,a5,1796 # a000a94c <buf.2>
a0001250:	00f12c23          	sw	a5,24(sp)
a0001254:	19000793          	li	a5,400
a0001258:	00f12e23          	sw	a5,28(sp)
a000125c:	01010593          	addi	a1,sp,16
a0001260:	00100793          	li	a5,1
a0001264:	00b00513          	li	a0,11
a0001268:	00812a23          	sw	s0,20(sp)
a000126c:	02f12023          	sw	a5,32(sp)
a0001270:	00012823          	sw	zero,16(sp)
a0001274:	02010223          	sb	zero,36(sp)
a0001278:	1f4020ef          	jal	ra,a000346c <ioe_write>
a000127c:	00140413          	addi	s0,s0,1
a0001280:	12c00793          	li	a5,300
a0001284:	fcf412e3          	bne	s0,a5,a0001248 <aclock+0x4c>
a0001288:	00003417          	auipc	s0,0x3
a000128c:	3b440413          	addi	s0,s0,948 # a000463c <circle+0xc>
a0001290:	06f00793          	li	a5,111
a0001294:	00c00613          	li	a2,12
a0001298:	03e00693          	li	a3,62
a000129c:	00008717          	auipc	a4,0x8
a00012a0:	0d570713          	addi	a4,a4,213 # a0009371 <last_c.1>
a00012a4:	ff068693          	addi	a3,a3,-16
a00012a8:	00074583          	lbu	a1,0(a4)
a00012ac:	01f6d713          	srli	a4,a3,0x1f
a00012b0:	00d70733          	add	a4,a4,a3
a00012b4:	0ff7f793          	zext.b	a5,a5
a00012b8:	40175713          	srai	a4,a4,0x1
a00012bc:	0af58463          	beq	a1,a5,a0001364 <aclock+0x168>
a00012c0:	00008697          	auipc	a3,0x8
a00012c4:	0b168693          	addi	a3,a3,177 # a0009371 <last_c.1>
a00012c8:	00f68023          	sb	a5,0(a3)
a00012cc:	02000593          	li	a1,32
a00012d0:	00000693          	li	a3,0
a00012d4:	06b78e63          	beq	a5,a1,a0001350 <aclock+0x154>
a00012d8:	01900693          	li	a3,25
a00012dc:	02d7d6b3          	divu	a3,a5,a3
a00012e0:	00500593          	li	a1,5
a00012e4:	00369513          	slli	a0,a3,0x3
a00012e8:	40d50533          	sub	a0,a0,a3
a00012ec:	00551313          	slli	t1,a0,0x5
a00012f0:	00650533          	add	a0,a0,t1
a00012f4:	00a787b3          	add	a5,a5,a0
a00012f8:	0ff7f793          	zext.b	a5,a5
a00012fc:	02b7d533          	divu	a0,a5,a1
a0001300:	00869693          	slli	a3,a3,0x8
a0001304:	00251313          	slli	t1,a0,0x2
a0001308:	00650333          	add	t1,a0,t1
a000130c:	00851513          	slli	a0,a0,0x8
a0001310:	02b54533          	div	a0,a0,a1
a0001314:	406787b3          	sub	a5,a5,t1
a0001318:	0ff7f793          	zext.b	a5,a5
a000131c:	00879793          	slli	a5,a5,0x8
a0001320:	00ff0337          	lui	t1,0xff0
a0001324:	02b6c6b3          	div	a3,a3,a1
a0001328:	02b7c7b3          	div	a5,a5,a1
a000132c:	00851593          	slli	a1,a0,0x8
a0001330:	00010537          	lui	a0,0x10
a0001334:	01069693          	slli	a3,a3,0x10
a0001338:	fff50513          	addi	a0,a0,-1 # ffff <_entry_offset+0xffff>
a000133c:	0066f6b3          	and	a3,a3,t1
a0001340:	00a5f5b3          	and	a1,a1,a0
a0001344:	00b6e6b3          	or	a3,a3,a1
a0001348:	0ff7f793          	zext.b	a5,a5
a000134c:	00f6e6b3          	or	a3,a3,a5
a0001350:	00009797          	auipc	a5,0x9
a0001354:	5bc78793          	addi	a5,a5,1468 # a000a90c <buf.0>
a0001358:	00d7a023          	sw	a3,0(a5)
a000135c:	00478793          	addi	a5,a5,4
a0001360:	fe979ce3          	bne	a5,s1,a0001358 <aclock+0x15c>
a0001364:	00271713          	slli	a4,a4,0x2
a0001368:	00400793          	li	a5,4
a000136c:	00261613          	slli	a2,a2,0x2
a0001370:	00e12823          	sw	a4,16(sp)
a0001374:	01010593          	addi	a1,sp,16
a0001378:	00009717          	auipc	a4,0x9
a000137c:	59470713          	addi	a4,a4,1428 # a000a90c <buf.0>
a0001380:	00b00513          	li	a0,11
a0001384:	00f12e23          	sw	a5,28(sp)
a0001388:	02f12023          	sw	a5,32(sp)
a000138c:	00c12a23          	sw	a2,20(sp)
a0001390:	00e12c23          	sw	a4,24(sp)
a0001394:	02010223          	sb	zero,36(sp)
a0001398:	0d4020ef          	jal	ra,a000346c <ioe_write>
a000139c:	00003797          	auipc	a5,0x3
a00013a0:	56478793          	addi	a5,a5,1380 # a0004900 <hour>
a00013a4:	00878c63          	beq	a5,s0,a00013bc <aclock+0x1c0>
a00013a8:	00042683          	lw	a3,0(s0)
a00013ac:	00442603          	lw	a2,4(s0)
a00013b0:	00842783          	lw	a5,8(s0)
a00013b4:	00c40413          	addi	s0,s0,12
a00013b8:	ee5ff06f          	j	a000129c <aclock+0xa0>
a00013bc:	00012703          	lw	a4,0(sp)
a00013c0:	00c00793          	li	a5,12
a00013c4:	2ee7da63          	bge	a5,a4,a00016b8 <aclock+0x4bc>
a00013c8:	ff470713          	addi	a4,a4,-12
a00013cc:	00271793          	slli	a5,a4,0x2
a00013d0:	00e787b3          	add	a5,a5,a4
a00013d4:	00412683          	lw	a3,4(sp)
a00013d8:	00a00713          	li	a4,10
a00013dc:	02e6c733          	div	a4,a3,a4
a00013e0:	00f70733          	add	a4,a4,a5
a00013e4:	00171793          	slli	a5,a4,0x1
a00013e8:	00e787b3          	add	a5,a5,a4
a00013ec:	00479793          	slli	a5,a5,0x4
a00013f0:	00003717          	auipc	a4,0x3
a00013f4:	51070713          	addi	a4,a4,1296 # a0004900 <hour>
a00013f8:	00f70433          	add	s0,a4,a5
a00013fc:	00003717          	auipc	a4,0x3
a0001400:	53470713          	addi	a4,a4,1332 # a0004930 <hour+0x30>
a0001404:	00f707b3          	add	a5,a4,a5
a0001408:	00f12023          	sw	a5,0(sp)
a000140c:	00042703          	lw	a4,0(s0)
a0001410:	00008797          	auipc	a5,0x8
a0001414:	f6178793          	addi	a5,a5,-159 # a0009371 <last_c.1>
a0001418:	0007c503          	lbu	a0,0(a5)
a000141c:	ff070713          	addi	a4,a4,-16
a0001420:	01f75793          	srli	a5,a4,0x1f
a0001424:	00e787b3          	add	a5,a5,a4
a0001428:	4017d693          	srai	a3,a5,0x1
a000142c:	06800793          	li	a5,104
a0001430:	00442583          	lw	a1,4(s0)
a0001434:	02f50863          	beq	a0,a5,a0001464 <aclock+0x268>
a0001438:	00008797          	auipc	a5,0x8
a000143c:	f3978793          	addi	a5,a5,-199 # a0009371 <last_c.1>
a0001440:	06800713          	li	a4,104
a0001444:	00e78023          	sb	a4,0(a5)
a0001448:	00cc0737          	lui	a4,0xcc0
a000144c:	00009797          	auipc	a5,0x9
a0001450:	4c078793          	addi	a5,a5,1216 # a000a90c <buf.0>
a0001454:	0cc70713          	addi	a4,a4,204 # cc00cc <_entry_offset+0xcc00cc>
a0001458:	00e7a023          	sw	a4,0(a5)
a000145c:	00478793          	addi	a5,a5,4
a0001460:	fe979ce3          	bne	a5,s1,a0001458 <aclock+0x25c>
a0001464:	00269793          	slli	a5,a3,0x2
a0001468:	00400713          	li	a4,4
a000146c:	00259693          	slli	a3,a1,0x2
a0001470:	00f12823          	sw	a5,16(sp)
a0001474:	01010593          	addi	a1,sp,16
a0001478:	00009797          	auipc	a5,0x9
a000147c:	49478793          	addi	a5,a5,1172 # a000a90c <buf.0>
a0001480:	00b00513          	li	a0,11
a0001484:	00f12c23          	sw	a5,24(sp)
a0001488:	00d12a23          	sw	a3,20(sp)
a000148c:	00e12e23          	sw	a4,28(sp)
a0001490:	02e12023          	sw	a4,32(sp)
a0001494:	02010223          	sb	zero,36(sp)
a0001498:	7d5010ef          	jal	ra,a000346c <ioe_write>
a000149c:	00012783          	lw	a5,0(sp)
a00014a0:	00840413          	addi	s0,s0,8
a00014a4:	f68794e3          	bne	a5,s0,a000140c <aclock+0x210>
a00014a8:	00412783          	lw	a5,4(sp)
a00014ac:	00004717          	auipc	a4,0x4
a00014b0:	f9470713          	addi	a4,a4,-108 # a0005440 <minute>
a00014b4:	00679793          	slli	a5,a5,0x6
a00014b8:	00f70433          	add	s0,a4,a5
a00014bc:	00004717          	auipc	a4,0x4
a00014c0:	fc470713          	addi	a4,a4,-60 # a0005480 <minute+0x40>
a00014c4:	00f707b3          	add	a5,a4,a5
a00014c8:	00f12023          	sw	a5,0(sp)
a00014cc:	00042703          	lw	a4,0(s0)
a00014d0:	00008797          	auipc	a5,0x8
a00014d4:	ea178793          	addi	a5,a5,-351 # a0009371 <last_c.1>
a00014d8:	0007c503          	lbu	a0,0(a5)
a00014dc:	ff070713          	addi	a4,a4,-16
a00014e0:	01f75793          	srli	a5,a4,0x1f
a00014e4:	00e787b3          	add	a5,a5,a4
a00014e8:	4017d693          	srai	a3,a5,0x1
a00014ec:	04d00793          	li	a5,77
a00014f0:	00442583          	lw	a1,4(s0)
a00014f4:	02f50863          	beq	a0,a5,a0001524 <aclock+0x328>
a00014f8:	00008797          	auipc	a5,0x8
a00014fc:	e7978793          	addi	a5,a5,-391 # a0009371 <last_c.1>
a0001500:	04d00713          	li	a4,77
a0001504:	00e78023          	sb	a4,0(a5)
a0001508:	00990737          	lui	a4,0x990
a000150c:	00009797          	auipc	a5,0x9
a0001510:	40078793          	addi	a5,a5,1024 # a000a90c <buf.0>
a0001514:	06670713          	addi	a4,a4,102 # 990066 <_entry_offset+0x990066>
a0001518:	00e7a023          	sw	a4,0(a5)
a000151c:	00478793          	addi	a5,a5,4
a0001520:	fef49ce3          	bne	s1,a5,a0001518 <aclock+0x31c>
a0001524:	00269793          	slli	a5,a3,0x2
a0001528:	00400713          	li	a4,4
a000152c:	00259693          	slli	a3,a1,0x2
a0001530:	00f12823          	sw	a5,16(sp)
a0001534:	01010593          	addi	a1,sp,16
a0001538:	00009797          	auipc	a5,0x9
a000153c:	3d478793          	addi	a5,a5,980 # a000a90c <buf.0>
a0001540:	00b00513          	li	a0,11
a0001544:	00f12c23          	sw	a5,24(sp)
a0001548:	00d12a23          	sw	a3,20(sp)
a000154c:	00e12e23          	sw	a4,28(sp)
a0001550:	02e12023          	sw	a4,32(sp)
a0001554:	02010223          	sb	zero,36(sp)
a0001558:	715010ef          	jal	ra,a000346c <ioe_write>
a000155c:	00012783          	lw	a5,0(sp)
a0001560:	00840413          	addi	s0,s0,8
a0001564:	f6f414e3          	bne	s0,a5,a00014cc <aclock+0x2d0>
a0001568:	00812783          	lw	a5,8(sp)
a000156c:	00004717          	auipc	a4,0x4
a0001570:	ed470713          	addi	a4,a4,-300 # a0005440 <minute>
a0001574:	00679793          	slli	a5,a5,0x6
a0001578:	00f70433          	add	s0,a4,a5
a000157c:	00004717          	auipc	a4,0x4
a0001580:	f0470713          	addi	a4,a4,-252 # a0005480 <minute+0x40>
a0001584:	00f707b3          	add	a5,a4,a5
a0001588:	00f12023          	sw	a5,0(sp)
a000158c:	00042703          	lw	a4,0(s0)
a0001590:	00008797          	auipc	a5,0x8
a0001594:	de178793          	addi	a5,a5,-543 # a0009371 <last_c.1>
a0001598:	0007c503          	lbu	a0,0(a5)
a000159c:	ff070713          	addi	a4,a4,-16
a00015a0:	01f75793          	srli	a5,a4,0x1f
a00015a4:	00e787b3          	add	a5,a5,a4
a00015a8:	4017d693          	srai	a3,a5,0x1
a00015ac:	02e00793          	li	a5,46
a00015b0:	00442583          	lw	a1,4(s0)
a00015b4:	02f50863          	beq	a0,a5,a00015e4 <aclock+0x3e8>
a00015b8:	00008797          	auipc	a5,0x8
a00015bc:	db978793          	addi	a5,a5,-583 # a0009371 <last_c.1>
a00015c0:	02e00713          	li	a4,46
a00015c4:	00e78023          	sb	a4,0(a5)
a00015c8:	0033d737          	lui	a4,0x33d
a00015cc:	00009797          	auipc	a5,0x9
a00015d0:	34078793          	addi	a5,a5,832 # a000a90c <buf.0>
a00015d4:	c3370713          	addi	a4,a4,-973 # 33cc33 <_entry_offset+0x33cc33>
a00015d8:	00e7a023          	sw	a4,0(a5)
a00015dc:	00478793          	addi	a5,a5,4
a00015e0:	fef49ce3          	bne	s1,a5,a00015d8 <aclock+0x3dc>
a00015e4:	00269793          	slli	a5,a3,0x2
a00015e8:	00400713          	li	a4,4
a00015ec:	00259693          	slli	a3,a1,0x2
a00015f0:	00f12823          	sw	a5,16(sp)
a00015f4:	01010593          	addi	a1,sp,16
a00015f8:	00009797          	auipc	a5,0x9
a00015fc:	31478793          	addi	a5,a5,788 # a000a90c <buf.0>
a0001600:	00b00513          	li	a0,11
a0001604:	00f12c23          	sw	a5,24(sp)
a0001608:	00d12a23          	sw	a3,20(sp)
a000160c:	00e12e23          	sw	a4,28(sp)
a0001610:	02e12023          	sw	a4,32(sp)
a0001614:	02010223          	sb	zero,36(sp)
a0001618:	655010ef          	jal	ra,a000346c <ioe_write>
a000161c:	00012783          	lw	a5,0(sp)
a0001620:	00840413          	addi	s0,s0,8
a0001624:	f68794e3          	bne	a5,s0,a000158c <aclock+0x390>
a0001628:	00100793          	li	a5,1
a000162c:	00b00513          	li	a0,11
a0001630:	01010593          	addi	a1,sp,16
a0001634:	02f10223          	sb	a5,36(sp)
a0001638:	00012823          	sw	zero,16(sp)
a000163c:	00012a23          	sw	zero,20(sp)
a0001640:	00012c23          	sw	zero,24(sp)
a0001644:	00012e23          	sw	zero,28(sp)
a0001648:	02012023          	sw	zero,32(sp)
a000164c:	621010ef          	jal	ra,a000346c <ioe_write>
a0001650:	00c12403          	lw	s0,12(sp)
a0001654:	00600513          	li	a0,6
a0001658:	00040593          	mv	a1,s0
a000165c:	5f5010ef          	jal	ra,a0003450 <ioe_read>
a0001660:	00042783          	lw	a5,0(s0)
a0001664:	000f4737          	lui	a4,0xf4
a0001668:	00442683          	lw	a3,4(s0)
a000166c:	24070713          	addi	a4,a4,576 # f4240 <_entry_offset+0xf4240>
a0001670:	00e78733          	add	a4,a5,a4
a0001674:	00f737b3          	sltu	a5,a4,a5
a0001678:	00040613          	mv	a2,s0
a000167c:	00d78433          	add	s0,a5,a3
a0001680:	00812023          	sw	s0,0(sp)
a0001684:	00e12223          	sw	a4,4(sp)
a0001688:	00060413          	mv	s0,a2
a000168c:	00040593          	mv	a1,s0
a0001690:	00600513          	li	a0,6
a0001694:	5bd010ef          	jal	ra,a0003450 <ioe_read>
a0001698:	00442783          	lw	a5,4(s0)
a000169c:	00012703          	lw	a4,0(sp)
a00016a0:	00042683          	lw	a3,0(s0)
a00016a4:	fee7e4e3          	bltu	a5,a4,a000168c <aclock+0x490>
a00016a8:	b6f71ce3          	bne	a4,a5,a0001220 <aclock+0x24>
a00016ac:	00412783          	lw	a5,4(sp)
a00016b0:	fcf6eee3          	bltu	a3,a5,a000168c <aclock+0x490>
a00016b4:	b6dff06f          	j	a0001220 <aclock+0x24>
a00016b8:	00012703          	lw	a4,0(sp)
a00016bc:	00271793          	slli	a5,a4,0x2
a00016c0:	00e787b3          	add	a5,a5,a4
a00016c4:	d11ff06f          	j	a00013d4 <aclock+0x1d8>

a00016c8 <cmatrix>:
a00016c8:	f8410113          	addi	sp,sp,-124
a00016cc:	06b10793          	addi	a5,sp,107
a00016d0:	ff87f793          	andi	a5,a5,-8
a00016d4:	06812a23          	sw	s0,116(sp)
a00016d8:	06912823          	sw	s1,112(sp)
a00016dc:	06112c23          	sw	ra,120(sp)
a00016e0:	04f12223          	sw	a5,68(sp)
a00016e4:	00000413          	li	s0,0
a00016e8:	0000a497          	auipc	s1,0xa
a00016ec:	8e448493          	addi	s1,s1,-1820 # a000afcc <buf.2>
a00016f0:	19000793          	li	a5,400
a00016f4:	04f12c23          	sw	a5,88(sp)
a00016f8:	04c10593          	addi	a1,sp,76
a00016fc:	00100793          	li	a5,1
a0001700:	00b00513          	li	a0,11
a0001704:	04812823          	sw	s0,80(sp)
a0001708:	04f12e23          	sw	a5,92(sp)
a000170c:	04012623          	sw	zero,76(sp)
a0001710:	04912a23          	sw	s1,84(sp)
a0001714:	06010023          	sb	zero,96(sp)
a0001718:	555010ef          	jal	ra,a000346c <ioe_write>
a000171c:	00140413          	addi	s0,s0,1
a0001720:	12c00793          	li	a5,300
a0001724:	fcf416e3          	bne	s0,a5,a00016f0 <cmatrix+0x28>
a0001728:	7f8020ef          	jal	ra,a0003f20 <rand>
a000172c:	00050613          	mv	a2,a0
a0001730:	0000a497          	auipc	s1,0xa
a0001734:	edc48493          	addi	s1,s1,-292 # a000b60c <t>
a0001738:	03200413          	li	s0,50
a000173c:	00c12023          	sw	a2,0(sp)
a0001740:	7e0020ef          	jal	ra,a0003f20 <rand>
a0001744:	40a007b3          	neg	a5,a0
a0001748:	0287e7b3          	rem	a5,a5,s0
a000174c:	00448493          	addi	s1,s1,4
a0001750:	0000a697          	auipc	a3,0xa
a0001754:	ffc68693          	addi	a3,a3,-4 # a000b74c <buf.0>
a0001758:	00012603          	lw	a2,0(sp)
a000175c:	fef4ae23          	sw	a5,-4(s1)
a0001760:	fcd49ee3          	bne	s1,a3,a000173c <cmatrix+0x74>
a0001764:	00008797          	auipc	a5,0x8
a0001768:	c0e78793          	addi	a5,a5,-1010 # a0009372 <last_c.1>
a000176c:	0007c703          	lbu	a4,0(a5)
a0001770:	02700793          	li	a5,39
a0001774:	14f70ae3          	beq	a4,a5,a00020c8 <cmatrix+0xa00>
a0001778:	0000a717          	auipc	a4,0xa
a000177c:	81470713          	addi	a4,a4,-2028 # a000af8c <buf.0>
a0001780:	00008697          	auipc	a3,0x8
a0001784:	bf268693          	addi	a3,a3,-1038 # a0009372 <last_c.1>
a0001788:	00e12023          	sw	a4,0(sp)
a000178c:	00f68023          	sb	a5,0(a3)
a0001790:	00070793          	mv	a5,a4
a0001794:	00336737          	lui	a4,0x336
a0001798:	0000a497          	auipc	s1,0xa
a000179c:	83448493          	addi	s1,s1,-1996 # a000afcc <buf.2>
a00017a0:	6cc70713          	addi	a4,a4,1740 # 3366cc <_entry_offset+0x3366cc>
a00017a4:	00e7a023          	sw	a4,0(a5)
a00017a8:	00478793          	addi	a5,a5,4
a00017ac:	fef49ce3          	bne	s1,a5,a00017a4 <cmatrix+0xdc>
a00017b0:	02800713          	li	a4,40
a00017b4:	04e12623          	sw	a4,76(sp)
a00017b8:	04e12823          	sw	a4,80(sp)
a00017bc:	00012703          	lw	a4,0(sp)
a00017c0:	00400793          	li	a5,4
a00017c4:	04c10593          	addi	a1,sp,76
a00017c8:	00b00513          	li	a0,11
a00017cc:	00c12223          	sw	a2,4(sp)
a00017d0:	04e12a23          	sw	a4,84(sp)
a00017d4:	04f12c23          	sw	a5,88(sp)
a00017d8:	04f12e23          	sw	a5,92(sp)
a00017dc:	06010023          	sb	zero,96(sp)
a00017e0:	48d010ef          	jal	ra,a000346c <ioe_write>
a00017e4:	00412603          	lw	a2,4(sp)
a00017e8:	01700413          	li	s0,23
a00017ec:	04912423          	sw	s1,72(sp)
a00017f0:	00260713          	addi	a4,a2,2
a00017f4:	00a60793          	addi	a5,a2,10
a00017f8:	00b60313          	addi	t1,a2,11
a00017fc:	41f75593          	srai	a1,a4,0x1f
a0001800:	41f7d613          	srai	a2,a5,0x1f
a0001804:	41f35693          	srai	a3,t1,0x1f
a0001808:	01c6d693          	srli	a3,a3,0x1c
a000180c:	01c5d593          	srli	a1,a1,0x1c
a0001810:	01c65613          	srli	a2,a2,0x1c
a0001814:	00b70533          	add	a0,a4,a1
a0001818:	00c78733          	add	a4,a5,a2
a000181c:	00d307b3          	add	a5,t1,a3
a0001820:	00f57513          	andi	a0,a0,15
a0001824:	00f77713          	andi	a4,a4,15
a0001828:	00f7f793          	andi	a5,a5,15
a000182c:	40d787b3          	sub	a5,a5,a3
a0001830:	40b505b3          	sub	a1,a0,a1
a0001834:	40c70733          	sub	a4,a4,a2
a0001838:	00459693          	slli	a3,a1,0x4
a000183c:	00471713          	slli	a4,a4,0x4
a0001840:	00479793          	slli	a5,a5,0x4
a0001844:	0ff6f693          	zext.b	a3,a3
a0001848:	0ff77713          	zext.b	a4,a4
a000184c:	0ff7f793          	zext.b	a5,a5
a0001850:	02d12e23          	sw	a3,60(sp)
a0001854:	02e12c23          	sw	a4,56(sp)
a0001858:	04f12023          	sw	a5,64(sp)
a000185c:	04812483          	lw	s1,72(sp)
a0001860:	04f00793          	li	a5,79
a0001864:	00f12223          	sw	a5,4(sp)
a0001868:	6b8020ef          	jal	ra,a0003f20 <rand>
a000186c:	04f00793          	li	a5,79
a0001870:	02f567b3          	rem	a5,a0,a5
a0001874:	01c00613          	li	a2,28
a0001878:	00279713          	slli	a4,a5,0x2
a000187c:	00f12a23          	sw	a5,20(sp)
a0001880:	0000a797          	auipc	a5,0xa
a0001884:	d8c78793          	addi	a5,a5,-628 # a000b60c <t>
a0001888:	00e786b3          	add	a3,a5,a4
a000188c:	0006a783          	lw	a5,0(a3)
a0001890:	14f65c63          	bge	a2,a5,a00019e8 <cmatrix+0x320>
a0001894:	00100793          	li	a5,1
a0001898:	00f6a023          	sw	a5,0(a3)
a000189c:	fff00793          	li	a5,-1
a00018a0:	00f12623          	sw	a5,12(sp)
a00018a4:	02f12023          	sw	a5,32(sp)
a00018a8:	00100793          	li	a5,1
a00018ac:	00f12423          	sw	a5,8(sp)
a00018b0:	ffe00793          	li	a5,-2
a00018b4:	00f12e23          	sw	a5,28(sp)
a00018b8:	00100793          	li	a5,1
a00018bc:	00f12c23          	sw	a5,24(sp)
a00018c0:	ffe00313          	li	t1,-2
a00018c4:	00000793          	li	a5,0
a00018c8:	00012823          	sw	zero,16(sp)
a00018cc:	30647463          	bgeu	s0,t1,a0001bd4 <cmatrix+0x50c>
a00018d0:	00c12683          	lw	a3,12(sp)
a00018d4:	38d47863          	bgeu	s0,a3,a0001c64 <cmatrix+0x59c>
a00018d8:	01012683          	lw	a3,16(sp)
a00018dc:	40d47c63          	bgeu	s0,a3,a0001cf4 <cmatrix+0x62c>
a00018e0:	00812783          	lw	a5,8(sp)
a00018e4:	06f46663          	bltu	s0,a5,a0001950 <cmatrix+0x288>
a00018e8:	00008797          	auipc	a5,0x8
a00018ec:	a8a78793          	addi	a5,a5,-1398 # a0009372 <last_c.1>
a00018f0:	0007c683          	lbu	a3,0(a5)
a00018f4:	02000793          	li	a5,32
a00018f8:	02f68263          	beq	a3,a5,a000191c <cmatrix+0x254>
a00018fc:	00008697          	auipc	a3,0x8
a0001900:	a7668693          	addi	a3,a3,-1418 # a0009372 <last_c.1>
a0001904:	00f68023          	sb	a5,0(a3)
a0001908:	00009797          	auipc	a5,0x9
a000190c:	68478793          	addi	a5,a5,1668 # a000af8c <buf.0>
a0001910:	0007a023          	sw	zero,0(a5)
a0001914:	00478793          	addi	a5,a5,4
a0001918:	fe979ce3          	bne	a5,s1,a0001910 <cmatrix+0x248>
a000191c:	01812683          	lw	a3,24(sp)
a0001920:	04e12623          	sw	a4,76(sp)
a0001924:	00012703          	lw	a4,0(sp)
a0001928:	00400793          	li	a5,4
a000192c:	00269693          	slli	a3,a3,0x2
a0001930:	04c10593          	addi	a1,sp,76
a0001934:	00b00513          	li	a0,11
a0001938:	04d12823          	sw	a3,80(sp)
a000193c:	04e12a23          	sw	a4,84(sp)
a0001940:	04f12c23          	sw	a5,88(sp)
a0001944:	04f12e23          	sw	a5,92(sp)
a0001948:	06010023          	sb	zero,96(sp)
a000194c:	321010ef          	jal	ra,a000346c <ioe_write>
a0001950:	00412783          	lw	a5,4(sp)
a0001954:	fff78793          	addi	a5,a5,-1
a0001958:	00f12223          	sw	a5,4(sp)
a000195c:	f00796e3          	bnez	a5,a0001868 <cmatrix+0x1a0>
a0001960:	00100793          	li	a5,1
a0001964:	00b00513          	li	a0,11
a0001968:	04c10593          	addi	a1,sp,76
a000196c:	06f10023          	sb	a5,96(sp)
a0001970:	04012623          	sw	zero,76(sp)
a0001974:	04012823          	sw	zero,80(sp)
a0001978:	04012a23          	sw	zero,84(sp)
a000197c:	04012c23          	sw	zero,88(sp)
a0001980:	04012e23          	sw	zero,92(sp)
a0001984:	2e9010ef          	jal	ra,a000346c <ioe_write>
a0001988:	04412483          	lw	s1,68(sp)
a000198c:	00600513          	li	a0,6
a0001990:	00048593          	mv	a1,s1
a0001994:	2bd010ef          	jal	ra,a0003450 <ioe_read>
a0001998:	0004a783          	lw	a5,0(s1)
a000199c:	00018737          	lui	a4,0x18
a00019a0:	0044a683          	lw	a3,4(s1)
a00019a4:	6a070713          	addi	a4,a4,1696 # 186a0 <_entry_offset+0x186a0>
a00019a8:	00e78733          	add	a4,a5,a4
a00019ac:	00f737b3          	sltu	a5,a4,a5
a00019b0:	00d787b3          	add	a5,a5,a3
a00019b4:	00e12423          	sw	a4,8(sp)
a00019b8:	00f12223          	sw	a5,4(sp)
a00019bc:	00048593          	mv	a1,s1
a00019c0:	00600513          	li	a0,6
a00019c4:	28d010ef          	jal	ra,a0003450 <ioe_read>
a00019c8:	0044a783          	lw	a5,4(s1)
a00019cc:	00412683          	lw	a3,4(sp)
a00019d0:	0004a703          	lw	a4,0(s1)
a00019d4:	fed7e4e3          	bltu	a5,a3,a00019bc <cmatrix+0x2f4>
a00019d8:	e8f692e3          	bne	a3,a5,a000185c <cmatrix+0x194>
a00019dc:	00812783          	lw	a5,8(sp)
a00019e0:	fcf76ee3          	bltu	a4,a5,a00019bc <cmatrix+0x2f4>
a00019e4:	e79ff06f          	j	a000185c <cmatrix+0x194>
a00019e8:	00178593          	addi	a1,a5,1
a00019ec:	fff78513          	addi	a0,a5,-1
a00019f0:	ffe78313          	addi	t1,a5,-2
a00019f4:	00b6a023          	sw	a1,0(a3)
a00019f8:	ffd78693          	addi	a3,a5,-3
a00019fc:	00b12c23          	sw	a1,24(sp)
a0001a00:	00612e23          	sw	t1,28(sp)
a0001a04:	02a12023          	sw	a0,32(sp)
a0001a08:	ffb78613          	addi	a2,a5,-5
a0001a0c:	02d12223          	sw	a3,36(sp)
a0001a10:	00a12623          	sw	a0,12(sp)
a0001a14:	00f12823          	sw	a5,16(sp)
a0001a18:	00b12423          	sw	a1,8(sp)
a0001a1c:	ffc78293          	addi	t0,a5,-4
a0001a20:	08c46463          	bltu	s0,a2,a0001aa8 <cmatrix+0x3e0>
a0001a24:	00008697          	auipc	a3,0x8
a0001a28:	94e68693          	addi	a3,a3,-1714 # a0009372 <last_c.1>
a0001a2c:	0006c583          	lbu	a1,0(a3)
a0001a30:	02000693          	li	a3,32
a0001a34:	02d58263          	beq	a1,a3,a0001a58 <cmatrix+0x390>
a0001a38:	00008597          	auipc	a1,0x8
a0001a3c:	93a58593          	addi	a1,a1,-1734 # a0009372 <last_c.1>
a0001a40:	00d58023          	sb	a3,0(a1)
a0001a44:	00009697          	auipc	a3,0x9
a0001a48:	54868693          	addi	a3,a3,1352 # a000af8c <buf.0>
a0001a4c:	0006a023          	sw	zero,0(a3)
a0001a50:	00468693          	addi	a3,a3,4
a0001a54:	fed49ce3          	bne	s1,a3,a0001a4c <cmatrix+0x384>
a0001a58:	02f12623          	sw	a5,44(sp)
a0001a5c:	00012783          	lw	a5,0(sp)
a0001a60:	00400693          	li	a3,4
a0001a64:	00261613          	slli	a2,a2,0x2
a0001a68:	04c10593          	addi	a1,sp,76
a0001a6c:	00b00513          	li	a0,11
a0001a70:	02512a23          	sw	t0,52(sp)
a0001a74:	02612823          	sw	t1,48(sp)
a0001a78:	04e12623          	sw	a4,76(sp)
a0001a7c:	02e12423          	sw	a4,40(sp)
a0001a80:	04f12a23          	sw	a5,84(sp)
a0001a84:	04c12823          	sw	a2,80(sp)
a0001a88:	04d12c23          	sw	a3,88(sp)
a0001a8c:	04d12e23          	sw	a3,92(sp)
a0001a90:	06010023          	sb	zero,96(sp)
a0001a94:	1d9010ef          	jal	ra,a000346c <ioe_write>
a0001a98:	02812703          	lw	a4,40(sp)
a0001a9c:	02c12783          	lw	a5,44(sp)
a0001aa0:	03012303          	lw	t1,48(sp)
a0001aa4:	03412283          	lw	t0,52(sp)
a0001aa8:	08546863          	bltu	s0,t0,a0001b38 <cmatrix+0x470>
a0001aac:	03c12583          	lw	a1,60(sp)
a0001ab0:	00008697          	auipc	a3,0x8
a0001ab4:	8c268693          	addi	a3,a3,-1854 # a0009372 <last_c.1>
a0001ab8:	00900613          	li	a2,9
a0001abc:	0006c683          	lbu	a3,0(a3)
a0001ac0:	54b66063          	bltu	a2,a1,a0002000 <cmatrix+0x938>
a0001ac4:	02000593          	li	a1,32
a0001ac8:	00000613          	li	a2,0
a0001acc:	02b68263          	beq	a3,a1,a0001af0 <cmatrix+0x428>
a0001ad0:	00008697          	auipc	a3,0x8
a0001ad4:	8a268693          	addi	a3,a3,-1886 # a0009372 <last_c.1>
a0001ad8:	00b68023          	sb	a1,0(a3)
a0001adc:	00009697          	auipc	a3,0x9
a0001ae0:	4b068693          	addi	a3,a3,1200 # a000af8c <buf.0>
a0001ae4:	00c6a023          	sw	a2,0(a3)
a0001ae8:	00468693          	addi	a3,a3,4
a0001aec:	fe969ce3          	bne	a3,s1,a0001ae4 <cmatrix+0x41c>
a0001af0:	02f12623          	sw	a5,44(sp)
a0001af4:	00012783          	lw	a5,0(sp)
a0001af8:	00400693          	li	a3,4
a0001afc:	00229293          	slli	t0,t0,0x2
a0001b00:	04c10593          	addi	a1,sp,76
a0001b04:	00b00513          	li	a0,11
a0001b08:	02612823          	sw	t1,48(sp)
a0001b0c:	04e12623          	sw	a4,76(sp)
a0001b10:	02e12423          	sw	a4,40(sp)
a0001b14:	04f12a23          	sw	a5,84(sp)
a0001b18:	04512823          	sw	t0,80(sp)
a0001b1c:	04d12c23          	sw	a3,88(sp)
a0001b20:	04d12e23          	sw	a3,92(sp)
a0001b24:	06010023          	sb	zero,96(sp)
a0001b28:	145010ef          	jal	ra,a000346c <ioe_write>
a0001b2c:	02812703          	lw	a4,40(sp)
a0001b30:	02c12783          	lw	a5,44(sp)
a0001b34:	03012303          	lw	t1,48(sp)
a0001b38:	02412683          	lw	a3,36(sp)
a0001b3c:	d8d468e3          	bltu	s0,a3,a00018cc <cmatrix+0x204>
a0001b40:	00008617          	auipc	a2,0x8
a0001b44:	83260613          	addi	a2,a2,-1998 # a0009372 <last_c.1>
a0001b48:	00064583          	lbu	a1,0(a2)
a0001b4c:	03c12603          	lw	a2,60(sp)
a0001b50:	00900693          	li	a3,9
a0001b54:	36c6e263          	bltu	a3,a2,a0001eb8 <cmatrix+0x7f0>
a0001b58:	02000693          	li	a3,32
a0001b5c:	00000613          	li	a2,0
a0001b60:	02d58263          	beq	a1,a3,a0001b84 <cmatrix+0x4bc>
a0001b64:	00008597          	auipc	a1,0x8
a0001b68:	80e58593          	addi	a1,a1,-2034 # a0009372 <last_c.1>
a0001b6c:	00d58023          	sb	a3,0(a1)
a0001b70:	00009697          	auipc	a3,0x9
a0001b74:	41c68693          	addi	a3,a3,1052 # a000af8c <buf.0>
a0001b78:	00c6a023          	sw	a2,0(a3)
a0001b7c:	00468693          	addi	a3,a3,4
a0001b80:	fed49ce3          	bne	s1,a3,a0001b78 <cmatrix+0x4b0>
a0001b84:	02f12423          	sw	a5,40(sp)
a0001b88:	02412783          	lw	a5,36(sp)
a0001b8c:	00400693          	li	a3,4
a0001b90:	04c10593          	addi	a1,sp,76
a0001b94:	00279613          	slli	a2,a5,0x2
a0001b98:	00012783          	lw	a5,0(sp)
a0001b9c:	00b00513          	li	a0,11
a0001ba0:	02612623          	sw	t1,44(sp)
a0001ba4:	04e12623          	sw	a4,76(sp)
a0001ba8:	02e12223          	sw	a4,36(sp)
a0001bac:	04f12a23          	sw	a5,84(sp)
a0001bb0:	04c12823          	sw	a2,80(sp)
a0001bb4:	04d12c23          	sw	a3,88(sp)
a0001bb8:	04d12e23          	sw	a3,92(sp)
a0001bbc:	06010023          	sb	zero,96(sp)
a0001bc0:	0ad010ef          	jal	ra,a000346c <ioe_write>
a0001bc4:	02c12303          	lw	t1,44(sp)
a0001bc8:	02412703          	lw	a4,36(sp)
a0001bcc:	02812783          	lw	a5,40(sp)
a0001bd0:	d06460e3          	bltu	s0,t1,a00018d0 <cmatrix+0x208>
a0001bd4:	03812583          	lw	a1,56(sp)
a0001bd8:	00007697          	auipc	a3,0x7
a0001bdc:	79a68693          	addi	a3,a3,1946 # a0009372 <last_c.1>
a0001be0:	00900613          	li	a2,9
a0001be4:	0006c683          	lbu	a3,0(a3)
a0001be8:	36b66a63          	bltu	a2,a1,a0001f5c <cmatrix+0x894>
a0001bec:	02000513          	li	a0,32
a0001bf0:	00000613          	li	a2,0
a0001bf4:	02a68263          	beq	a3,a0,a0001c18 <cmatrix+0x550>
a0001bf8:	00007697          	auipc	a3,0x7
a0001bfc:	77a68693          	addi	a3,a3,1914 # a0009372 <last_c.1>
a0001c00:	00a68023          	sb	a0,0(a3)
a0001c04:	00009697          	auipc	a3,0x9
a0001c08:	38868693          	addi	a3,a3,904 # a000af8c <buf.0>
a0001c0c:	00c6a023          	sw	a2,0(a3)
a0001c10:	00468693          	addi	a3,a3,4
a0001c14:	fed49ce3          	bne	s1,a3,a0001c0c <cmatrix+0x544>
a0001c18:	02f12223          	sw	a5,36(sp)
a0001c1c:	01c12783          	lw	a5,28(sp)
a0001c20:	00400693          	li	a3,4
a0001c24:	04c10593          	addi	a1,sp,76
a0001c28:	00279613          	slli	a2,a5,0x2
a0001c2c:	00012783          	lw	a5,0(sp)
a0001c30:	00b00513          	li	a0,11
a0001c34:	04e12623          	sw	a4,76(sp)
a0001c38:	00e12e23          	sw	a4,28(sp)
a0001c3c:	04f12a23          	sw	a5,84(sp)
a0001c40:	04d12c23          	sw	a3,88(sp)
a0001c44:	04d12e23          	sw	a3,92(sp)
a0001c48:	04c12823          	sw	a2,80(sp)
a0001c4c:	06010023          	sb	zero,96(sp)
a0001c50:	01d010ef          	jal	ra,a000346c <ioe_write>
a0001c54:	00c12683          	lw	a3,12(sp)
a0001c58:	01c12703          	lw	a4,28(sp)
a0001c5c:	02412783          	lw	a5,36(sp)
a0001c60:	c6d46ce3          	bltu	s0,a3,a00018d8 <cmatrix+0x210>
a0001c64:	03812583          	lw	a1,56(sp)
a0001c68:	00007697          	auipc	a3,0x7
a0001c6c:	70a68693          	addi	a3,a3,1802 # a0009372 <last_c.1>
a0001c70:	00900613          	li	a2,9
a0001c74:	0006c683          	lbu	a3,0(a3)
a0001c78:	0eb66e63          	bltu	a2,a1,a0001d74 <cmatrix+0x6ac>
a0001c7c:	02000593          	li	a1,32
a0001c80:	00000613          	li	a2,0
a0001c84:	02b68263          	beq	a3,a1,a0001ca8 <cmatrix+0x5e0>
a0001c88:	00007697          	auipc	a3,0x7
a0001c8c:	6ea68693          	addi	a3,a3,1770 # a0009372 <last_c.1>
a0001c90:	00b68023          	sb	a1,0(a3)
a0001c94:	00009697          	auipc	a3,0x9
a0001c98:	2f868693          	addi	a3,a3,760 # a000af8c <buf.0>
a0001c9c:	00c6a023          	sw	a2,0(a3)
a0001ca0:	00468693          	addi	a3,a3,4
a0001ca4:	fe969ce3          	bne	a3,s1,a0001c9c <cmatrix+0x5d4>
a0001ca8:	00f12e23          	sw	a5,28(sp)
a0001cac:	02012783          	lw	a5,32(sp)
a0001cb0:	00400693          	li	a3,4
a0001cb4:	04c10593          	addi	a1,sp,76
a0001cb8:	00279613          	slli	a2,a5,0x2
a0001cbc:	00012783          	lw	a5,0(sp)
a0001cc0:	00b00513          	li	a0,11
a0001cc4:	04e12623          	sw	a4,76(sp)
a0001cc8:	00e12623          	sw	a4,12(sp)
a0001ccc:	04f12a23          	sw	a5,84(sp)
a0001cd0:	04d12c23          	sw	a3,88(sp)
a0001cd4:	04d12e23          	sw	a3,92(sp)
a0001cd8:	04c12823          	sw	a2,80(sp)
a0001cdc:	06010023          	sb	zero,96(sp)
a0001ce0:	78c010ef          	jal	ra,a000346c <ioe_write>
a0001ce4:	01012683          	lw	a3,16(sp)
a0001ce8:	00c12703          	lw	a4,12(sp)
a0001cec:	01c12783          	lw	a5,28(sp)
a0001cf0:	bed468e3          	bltu	s0,a3,a00018e0 <cmatrix+0x218>
a0001cf4:	04012583          	lw	a1,64(sp)
a0001cf8:	00007697          	auipc	a3,0x7
a0001cfc:	67a68693          	addi	a3,a3,1658 # a0009372 <last_c.1>
a0001d00:	00900613          	li	a2,9
a0001d04:	0006c683          	lbu	a3,0(a3)
a0001d08:	10b66863          	bltu	a2,a1,a0001e18 <cmatrix+0x750>
a0001d0c:	02000593          	li	a1,32
a0001d10:	00000613          	li	a2,0
a0001d14:	02b68263          	beq	a3,a1,a0001d38 <cmatrix+0x670>
a0001d18:	00007697          	auipc	a3,0x7
a0001d1c:	65a68693          	addi	a3,a3,1626 # a0009372 <last_c.1>
a0001d20:	00b68023          	sb	a1,0(a3)
a0001d24:	00009697          	auipc	a3,0x9
a0001d28:	26868693          	addi	a3,a3,616 # a000af8c <buf.0>
a0001d2c:	00c6a023          	sw	a2,0(a3)
a0001d30:	00468693          	addi	a3,a3,4
a0001d34:	fed49ce3          	bne	s1,a3,a0001d2c <cmatrix+0x664>
a0001d38:	00279793          	slli	a5,a5,0x2
a0001d3c:	04f12823          	sw	a5,80(sp)
a0001d40:	00012783          	lw	a5,0(sp)
a0001d44:	00400693          	li	a3,4
a0001d48:	04c10593          	addi	a1,sp,76
a0001d4c:	00b00513          	li	a0,11
a0001d50:	04e12623          	sw	a4,76(sp)
a0001d54:	00e12623          	sw	a4,12(sp)
a0001d58:	04f12a23          	sw	a5,84(sp)
a0001d5c:	04d12c23          	sw	a3,88(sp)
a0001d60:	04d12e23          	sw	a3,92(sp)
a0001d64:	06010023          	sb	zero,96(sp)
a0001d68:	704010ef          	jal	ra,a000346c <ioe_write>
a0001d6c:	00c12703          	lw	a4,12(sp)
a0001d70:	b71ff06f          	j	a00018e0 <cmatrix+0x218>
a0001d74:	01412603          	lw	a2,20(sp)
a0001d78:	02012583          	lw	a1,32(sp)
a0001d7c:	02b605b3          	mul	a1,a2,a1
a0001d80:	05e00613          	li	a2,94
a0001d84:	02c5e5b3          	rem	a1,a1,a2
a0001d88:	02158593          	addi	a1,a1,33
a0001d8c:	0ff5f593          	zext.b	a1,a1
a0001d90:	f0d58ce3          	beq	a1,a3,a0001ca8 <cmatrix+0x5e0>
a0001d94:	02000693          	li	a3,32
a0001d98:	30d58463          	beq	a1,a3,a00020a0 <cmatrix+0x9d8>
a0001d9c:	01900693          	li	a3,25
a0001da0:	02d5d6b3          	divu	a3,a1,a3
a0001da4:	00500513          	li	a0,5
a0001da8:	00369613          	slli	a2,a3,0x3
a0001dac:	40d60633          	sub	a2,a2,a3
a0001db0:	00561313          	slli	t1,a2,0x5
a0001db4:	00660633          	add	a2,a2,t1
a0001db8:	00c58633          	add	a2,a1,a2
a0001dbc:	0ff67313          	zext.b	t1,a2
a0001dc0:	02a352b3          	divu	t0,t1,a0
a0001dc4:	00869693          	slli	a3,a3,0x8
a0001dc8:	00229393          	slli	t2,t0,0x2
a0001dcc:	02a6c633          	div	a2,a3,a0
a0001dd0:	007283b3          	add	t2,t0,t2
a0001dd4:	40730333          	sub	t1,t1,t2
a0001dd8:	00829293          	slli	t0,t0,0x8
a0001ddc:	0ff37693          	zext.b	a3,t1
a0001de0:	00869693          	slli	a3,a3,0x8
a0001de4:	00ff0337          	lui	t1,0xff0
a0001de8:	02a2c2b3          	div	t0,t0,a0
a0001dec:	01061613          	slli	a2,a2,0x10
a0001df0:	00667633          	and	a2,a2,t1
a0001df4:	00010337          	lui	t1,0x10
a0001df8:	fff30313          	addi	t1,t1,-1 # ffff <_entry_offset+0xffff>
a0001dfc:	02a6c6b3          	div	a3,a3,a0
a0001e00:	00829513          	slli	a0,t0,0x8
a0001e04:	00657533          	and	a0,a0,t1
a0001e08:	00a66633          	or	a2,a2,a0
a0001e0c:	0ff6f693          	zext.b	a3,a3
a0001e10:	00d66633          	or	a2,a2,a3
a0001e14:	e75ff06f          	j	a0001c88 <cmatrix+0x5c0>
a0001e18:	01412603          	lw	a2,20(sp)
a0001e1c:	02f605b3          	mul	a1,a2,a5
a0001e20:	05e00613          	li	a2,94
a0001e24:	02c5e5b3          	rem	a1,a1,a2
a0001e28:	02158593          	addi	a1,a1,33
a0001e2c:	0ff5f593          	zext.b	a1,a1
a0001e30:	f0d584e3          	beq	a1,a3,a0001d38 <cmatrix+0x670>
a0001e34:	02000693          	li	a3,32
a0001e38:	26d58863          	beq	a1,a3,a00020a8 <cmatrix+0x9e0>
a0001e3c:	01900693          	li	a3,25
a0001e40:	02d5d6b3          	divu	a3,a1,a3
a0001e44:	00500513          	li	a0,5
a0001e48:	00369613          	slli	a2,a3,0x3
a0001e4c:	40d60633          	sub	a2,a2,a3
a0001e50:	00561313          	slli	t1,a2,0x5
a0001e54:	00660633          	add	a2,a2,t1
a0001e58:	00c58633          	add	a2,a1,a2
a0001e5c:	0ff67313          	zext.b	t1,a2
a0001e60:	02a352b3          	divu	t0,t1,a0
a0001e64:	00869693          	slli	a3,a3,0x8
a0001e68:	00229393          	slli	t2,t0,0x2
a0001e6c:	02a6c633          	div	a2,a3,a0
a0001e70:	007283b3          	add	t2,t0,t2
a0001e74:	40730333          	sub	t1,t1,t2
a0001e78:	00829293          	slli	t0,t0,0x8
a0001e7c:	0ff37693          	zext.b	a3,t1
a0001e80:	00869693          	slli	a3,a3,0x8
a0001e84:	00ff0337          	lui	t1,0xff0
a0001e88:	02a2c2b3          	div	t0,t0,a0
a0001e8c:	01061613          	slli	a2,a2,0x10
a0001e90:	00667633          	and	a2,a2,t1
a0001e94:	00010337          	lui	t1,0x10
a0001e98:	fff30313          	addi	t1,t1,-1 # ffff <_entry_offset+0xffff>
a0001e9c:	02a6c6b3          	div	a3,a3,a0
a0001ea0:	00829513          	slli	a0,t0,0x8
a0001ea4:	00657533          	and	a0,a0,t1
a0001ea8:	00a66633          	or	a2,a2,a0
a0001eac:	0ff6f693          	zext.b	a3,a3
a0001eb0:	00d66633          	or	a2,a2,a3
a0001eb4:	e65ff06f          	j	a0001d18 <cmatrix+0x650>
a0001eb8:	02412603          	lw	a2,36(sp)
a0001ebc:	01412683          	lw	a3,20(sp)
a0001ec0:	02c686b3          	mul	a3,a3,a2
a0001ec4:	05e00613          	li	a2,94
a0001ec8:	02c6e6b3          	rem	a3,a3,a2
a0001ecc:	02168693          	addi	a3,a3,33
a0001ed0:	0ff6f693          	zext.b	a3,a3
a0001ed4:	cab688e3          	beq	a3,a1,a0001b84 <cmatrix+0x4bc>
a0001ed8:	02000613          	li	a2,32
a0001edc:	1cc68e63          	beq	a3,a2,a00020b8 <cmatrix+0x9f0>
a0001ee0:	01900613          	li	a2,25
a0001ee4:	02c6d633          	divu	a2,a3,a2
a0001ee8:	00500513          	li	a0,5
a0001eec:	00361593          	slli	a1,a2,0x3
a0001ef0:	40c585b3          	sub	a1,a1,a2
a0001ef4:	00559293          	slli	t0,a1,0x5
a0001ef8:	005585b3          	add	a1,a1,t0
a0001efc:	00b685b3          	add	a1,a3,a1
a0001f00:	0ff5f593          	zext.b	a1,a1
a0001f04:	02a5d2b3          	divu	t0,a1,a0
a0001f08:	00861613          	slli	a2,a2,0x8
a0001f0c:	00229393          	slli	t2,t0,0x2
a0001f10:	007283b3          	add	t2,t0,t2
a0001f14:	407585b3          	sub	a1,a1,t2
a0001f18:	00829293          	slli	t0,t0,0x8
a0001f1c:	02a64633          	div	a2,a2,a0
a0001f20:	0ff5f593          	zext.b	a1,a1
a0001f24:	00859593          	slli	a1,a1,0x8
a0001f28:	00ff03b7          	lui	t2,0xff0
a0001f2c:	02a2c2b3          	div	t0,t0,a0
a0001f30:	01061613          	slli	a2,a2,0x10
a0001f34:	00767633          	and	a2,a2,t2
a0001f38:	02a5c5b3          	div	a1,a1,a0
a0001f3c:	00010537          	lui	a0,0x10
a0001f40:	00829293          	slli	t0,t0,0x8
a0001f44:	fff50513          	addi	a0,a0,-1 # ffff <_entry_offset+0xffff>
a0001f48:	00a2f533          	and	a0,t0,a0
a0001f4c:	00a66633          	or	a2,a2,a0
a0001f50:	0ff5f593          	zext.b	a1,a1
a0001f54:	00b66633          	or	a2,a2,a1
a0001f58:	c0dff06f          	j	a0001b64 <cmatrix+0x49c>
a0001f5c:	01412603          	lw	a2,20(sp)
a0001f60:	01c12583          	lw	a1,28(sp)
a0001f64:	02b60533          	mul	a0,a2,a1
a0001f68:	05e00613          	li	a2,94
a0001f6c:	02c56533          	rem	a0,a0,a2
a0001f70:	02150513          	addi	a0,a0,33
a0001f74:	0ff57513          	zext.b	a0,a0
a0001f78:	cad500e3          	beq	a0,a3,a0001c18 <cmatrix+0x550>
a0001f7c:	02000693          	li	a3,32
a0001f80:	12d50863          	beq	a0,a3,a00020b0 <cmatrix+0x9e8>
a0001f84:	01900693          	li	a3,25
a0001f88:	02d556b3          	divu	a3,a0,a3
a0001f8c:	00500313          	li	t1,5
a0001f90:	00369613          	slli	a2,a3,0x3
a0001f94:	40d60633          	sub	a2,a2,a3
a0001f98:	00561593          	slli	a1,a2,0x5
a0001f9c:	00b605b3          	add	a1,a2,a1
a0001fa0:	00b505b3          	add	a1,a0,a1
a0001fa4:	0ff5f593          	zext.b	a1,a1
a0001fa8:	0265d2b3          	divu	t0,a1,t1
a0001fac:	00869693          	slli	a3,a3,0x8
a0001fb0:	00229393          	slli	t2,t0,0x2
a0001fb4:	007283b3          	add	t2,t0,t2
a0001fb8:	407585b3          	sub	a1,a1,t2
a0001fbc:	00829293          	slli	t0,t0,0x8
a0001fc0:	0266c633          	div	a2,a3,t1
a0001fc4:	0ff5f593          	zext.b	a1,a1
a0001fc8:	00859593          	slli	a1,a1,0x8
a0001fcc:	0262c6b3          	div	a3,t0,t1
a0001fd0:	01061613          	slli	a2,a2,0x10
a0001fd4:	00ff02b7          	lui	t0,0xff0
a0001fd8:	00567633          	and	a2,a2,t0
a0001fdc:	0265c5b3          	div	a1,a1,t1
a0001fe0:	00010337          	lui	t1,0x10
a0001fe4:	00869693          	slli	a3,a3,0x8
a0001fe8:	fff30313          	addi	t1,t1,-1 # ffff <_entry_offset+0xffff>
a0001fec:	0066f6b3          	and	a3,a3,t1
a0001ff0:	00d66633          	or	a2,a2,a3
a0001ff4:	0ff5f593          	zext.b	a1,a1
a0001ff8:	00b66633          	or	a2,a2,a1
a0001ffc:	bfdff06f          	j	a0001bf8 <cmatrix+0x530>
a0002000:	01412603          	lw	a2,20(sp)
a0002004:	025605b3          	mul	a1,a2,t0
a0002008:	05e00613          	li	a2,94
a000200c:	02c5e5b3          	rem	a1,a1,a2
a0002010:	02158593          	addi	a1,a1,33
a0002014:	0ff5f593          	zext.b	a1,a1
a0002018:	acd58ce3          	beq	a1,a3,a0001af0 <cmatrix+0x428>
a000201c:	02000693          	li	a3,32
a0002020:	0ad58063          	beq	a1,a3,a00020c0 <cmatrix+0x9f8>
a0002024:	01900093          	li	ra,25
a0002028:	0215d0b3          	divu	ra,a1,ra
a000202c:	00500513          	li	a0,5
a0002030:	00309693          	slli	a3,ra,0x3
a0002034:	401686b3          	sub	a3,a3,ra
a0002038:	00569613          	slli	a2,a3,0x5
a000203c:	00c686b3          	add	a3,a3,a2
a0002040:	00d586b3          	add	a3,a1,a3
a0002044:	0ff6f693          	zext.b	a3,a3
a0002048:	02a6d3b3          	divu	t2,a3,a0
a000204c:	00809093          	slli	ra,ra,0x8
a0002050:	00239613          	slli	a2,t2,0x2
a0002054:	00c38633          	add	a2,t2,a2
a0002058:	40c686b3          	sub	a3,a3,a2
a000205c:	00839393          	slli	t2,t2,0x8
a0002060:	02a0c0b3          	div	ra,ra,a0
a0002064:	0ff6f693          	zext.b	a3,a3
a0002068:	00869613          	slli	a2,a3,0x8
a000206c:	00ff06b7          	lui	a3,0xff0
a0002070:	02a3c3b3          	div	t2,t2,a0
a0002074:	01009093          	slli	ra,ra,0x10
a0002078:	00d0f6b3          	and	a3,ra,a3
a000207c:	02a64633          	div	a2,a2,a0
a0002080:	00010537          	lui	a0,0x10
a0002084:	00839393          	slli	t2,t2,0x8
a0002088:	fff50513          	addi	a0,a0,-1 # ffff <_entry_offset+0xffff>
a000208c:	00a3f3b3          	and	t2,t2,a0
a0002090:	0076e6b3          	or	a3,a3,t2
a0002094:	0ff67613          	zext.b	a2,a2
a0002098:	00c6e633          	or	a2,a3,a2
a000209c:	a35ff06f          	j	a0001ad0 <cmatrix+0x408>
a00020a0:	00000613          	li	a2,0
a00020a4:	be5ff06f          	j	a0001c88 <cmatrix+0x5c0>
a00020a8:	00000613          	li	a2,0
a00020ac:	c6dff06f          	j	a0001d18 <cmatrix+0x650>
a00020b0:	00000613          	li	a2,0
a00020b4:	b45ff06f          	j	a0001bf8 <cmatrix+0x530>
a00020b8:	00000613          	li	a2,0
a00020bc:	aa9ff06f          	j	a0001b64 <cmatrix+0x49c>
a00020c0:	00000613          	li	a2,0
a00020c4:	a0dff06f          	j	a0001ad0 <cmatrix+0x408>
a00020c8:	00009797          	auipc	a5,0x9
a00020cc:	ec478793          	addi	a5,a5,-316 # a000af8c <buf.0>
a00020d0:	00f12023          	sw	a5,0(sp)
a00020d4:	00009497          	auipc	s1,0x9
a00020d8:	ef848493          	addi	s1,s1,-264 # a000afcc <buf.2>
a00020dc:	ed4ff06f          	j	a00017b0 <cmatrix+0xe8>

a00020e0 <bf>:
a00020e0:	fc810113          	addi	sp,sp,-56
a00020e4:	00c00513          	li	a0,12
a00020e8:	02112a23          	sw	ra,52(sp)
a00020ec:	02812823          	sw	s0,48(sp)
a00020f0:	02912623          	sw	s1,44(sp)
a00020f4:	661010ef          	jal	ra,a0003f54 <malloc>
a00020f8:	00c00613          	li	a2,12
a00020fc:	00000593          	li	a1,0
a0002100:	00a12023          	sw	a0,0(sp)
a0002104:	00000413          	li	s0,0
a0002108:	7e8010ef          	jal	ra,a00038f0 <memset>
a000210c:	00009497          	auipc	s1,0x9
a0002110:	68048493          	addi	s1,s1,1664 # a000b78c <buf.4>
a0002114:	00100713          	li	a4,1
a0002118:	19000793          	li	a5,400
a000211c:	01410593          	addi	a1,sp,20
a0002120:	00b00513          	li	a0,11
a0002124:	00812c23          	sw	s0,24(sp)
a0002128:	02e12223          	sw	a4,36(sp)
a000212c:	00012a23          	sw	zero,20(sp)
a0002130:	00912e23          	sw	s1,28(sp)
a0002134:	02f12023          	sw	a5,32(sp)
a0002138:	02010423          	sb	zero,40(sp)
a000213c:	330010ef          	jal	ra,a000346c <ioe_write>
a0002140:	00140413          	addi	s0,s0,1
a0002144:	12c00713          	li	a4,300
a0002148:	fce416e3          	bne	s0,a4,a0002114 <bf+0x34>
a000214c:	00004717          	auipc	a4,0x4
a0002150:	1f570713          	addi	a4,a4,501 # a0006341 <minute+0xf01>
a0002154:	02000693          	li	a3,32
a0002158:	00012223          	sw	zero,4(sp)
a000215c:	00000493          	li	s1,0
a0002160:	00000413          	li	s0,0
a0002164:	05b00293          	li	t0,91
a0002168:	00170713          	addi	a4,a4,1
a000216c:	08068463          	beqz	a3,a00021f4 <bf+0x114>
a0002170:	00568a63          	beq	a3,t0,a0002184 <bf+0xa4>
a0002174:	0ed2f663          	bgeu	t0,a3,a0002260 <bf+0x180>
a0002178:	05d00793          	li	a5,93
a000217c:	06f69663          	bne	a3,a5,a00021e8 <bf+0x108>
a0002180:	06040463          	beqz	s0,a00021e8 <bf+0x108>
a0002184:	00c00513          	li	a0,12
a0002188:	00e12623          	sw	a4,12(sp)
a000218c:	00d12423          	sw	a3,8(sp)
a0002190:	5c5010ef          	jal	ra,a0003f54 <malloc>
a0002194:	00812683          	lw	a3,8(sp)
a0002198:	00c12703          	lw	a4,12(sp)
a000219c:	3c050263          	beqz	a0,a0002560 <bf+0x480>
a00021a0:	00c00613          	li	a2,12
a00021a4:	00000593          	li	a1,0
a00021a8:	00e12623          	sw	a4,12(sp)
a00021ac:	00d12423          	sw	a3,8(sp)
a00021b0:	00a12823          	sw	a0,16(sp)
a00021b4:	73c010ef          	jal	ra,a00038f0 <memset>
a00021b8:	00412603          	lw	a2,4(sp)
a00021bc:	00812683          	lw	a3,8(sp)
a00021c0:	00c12703          	lw	a4,12(sp)
a00021c4:	01012783          	lw	a5,16(sp)
a00021c8:	05b00293          	li	t0,91
a00021cc:	0c060a63          	beqz	a2,a00022a0 <bf+0x1c0>
a00021d0:	00f62223          	sw	a5,4(a2)
a00021d4:	00d78023          	sb	a3,0(a5)
a00021d8:	0a568a63          	beq	a3,t0,a000228c <bf+0x1ac>
a00021dc:	05d00613          	li	a2,93
a00021e0:	00f12223          	sw	a5,4(sp)
a00021e4:	06c68063          	beq	a3,a2,a0002244 <bf+0x164>
a00021e8:	00074683          	lbu	a3,0(a4)
a00021ec:	00170713          	addi	a4,a4,1
a00021f0:	f80690e3          	bnez	a3,a0002170 <bf+0x90>
a00021f4:	02000693          	li	a3,32
a00021f8:	00040c63          	beqz	s0,a0002210 <bf+0x130>
a00021fc:	00040793          	mv	a5,s0
a0002200:	00842403          	lw	s0,8(s0)
a0002204:	0007a423          	sw	zero,8(a5)
a0002208:	00d78023          	sb	a3,0(a5)
a000220c:	fe0418e3          	bnez	s0,a00021fc <bf+0x11c>
a0002210:	00007417          	auipc	s0,0x7
a0002214:	efc40413          	addi	s0,s0,-260 # a000910c <minute+0x3ccc>
a0002218:	0a048463          	beqz	s1,a00022c0 <bf+0x1e0>
a000221c:	0004c783          	lbu	a5,0(s1)
a0002220:	03200693          	li	a3,50
a0002224:	fd578793          	addi	a5,a5,-43
a0002228:	0ff7f793          	zext.b	a5,a5
a000222c:	08f6e663          	bltu	a3,a5,a00022b8 <bf+0x1d8>
a0002230:	00279793          	slli	a5,a5,0x2
a0002234:	008787b3          	add	a5,a5,s0
a0002238:	0007a783          	lw	a5,0(a5)
a000223c:	008787b3          	add	a5,a5,s0
a0002240:	00078067          	jr	a5
a0002244:	0087a423          	sw	s0,8(a5)
a0002248:	00842783          	lw	a5,8(s0)
a000224c:	00412683          	lw	a3,4(sp)
a0002250:	00d42423          	sw	a3,8(s0)
a0002254:	00074683          	lbu	a3,0(a4)
a0002258:	00078413          	mv	s0,a5
a000225c:	f91ff06f          	j	a00021ec <bf+0x10c>
a0002260:	fd568613          	addi	a2,a3,-43 # feffd5 <_entry_offset+0xfeffd5>
a0002264:	0ff67613          	zext.b	a2,a2
a0002268:	01300793          	li	a5,19
a000226c:	f6c7eee3          	bltu	a5,a2,a00021e8 <bf+0x108>
a0002270:	000a07b7          	lui	a5,0xa0
a0002274:	00f78793          	addi	a5,a5,15 # a000f <_entry_offset+0xa000f>
a0002278:	00c7d7b3          	srl	a5,a5,a2
a000227c:	0017f793          	andi	a5,a5,1
a0002280:	f00792e3          	bnez	a5,a0002184 <bf+0xa4>
a0002284:	00074683          	lbu	a3,0(a4)
a0002288:	f65ff06f          	j	a00021ec <bf+0x10c>
a000228c:	0087a423          	sw	s0,8(a5)
a0002290:	00074683          	lbu	a3,0(a4)
a0002294:	00078413          	mv	s0,a5
a0002298:	00f12223          	sw	a5,4(sp)
a000229c:	f51ff06f          	j	a00021ec <bf+0x10c>
a00022a0:	00078493          	mv	s1,a5
a00022a4:	f31ff06f          	j	a00021d4 <bf+0xf4>
a00022a8:	00012683          	lw	a3,0(sp)
a00022ac:	0006c783          	lbu	a5,0(a3)
a00022b0:	00178793          	addi	a5,a5,1
a00022b4:	00f68023          	sb	a5,0(a3)
a00022b8:	0044a483          	lw	s1,4(s1)
a00022bc:	f60490e3          	bnez	s1,a000221c <bf+0x13c>
a00022c0:	03412083          	lw	ra,52(sp)
a00022c4:	03012403          	lw	s0,48(sp)
a00022c8:	02c12483          	lw	s1,44(sp)
a00022cc:	03810113          	addi	sp,sp,56
a00022d0:	00008067          	ret
a00022d4:	00012783          	lw	a5,0(sp)
a00022d8:	0007c783          	lbu	a5,0(a5)
a00022dc:	fc078ee3          	beqz	a5,a00022b8 <bf+0x1d8>
a00022e0:	0084a483          	lw	s1,8(s1)
a00022e4:	0044a483          	lw	s1,4(s1)
a00022e8:	f2049ae3          	bnez	s1,a000221c <bf+0x13c>
a00022ec:	fd5ff06f          	j	a00022c0 <bf+0x1e0>
a00022f0:	00012783          	lw	a5,0(sp)
a00022f4:	0007c783          	lbu	a5,0(a5)
a00022f8:	fc0790e3          	bnez	a5,a00022b8 <bf+0x1d8>
a00022fc:	0084a483          	lw	s1,8(s1)
a0002300:	fe5ff06f          	j	a00022e4 <bf+0x204>
a0002304:	00012783          	lw	a5,0(sp)
a0002308:	0047a783          	lw	a5,4(a5)
a000230c:	0a078663          	beqz	a5,a00023b8 <bf+0x2d8>
a0002310:	00f12023          	sw	a5,0(sp)
a0002314:	0044a483          	lw	s1,4(s1)
a0002318:	f00492e3          	bnez	s1,a000221c <bf+0x13c>
a000231c:	fa5ff06f          	j	a00022c0 <bf+0x1e0>
a0002320:	00012783          	lw	a5,0(sp)
a0002324:	0087a783          	lw	a5,8(a5)
a0002328:	00f12023          	sw	a5,0(sp)
a000232c:	f80796e3          	bnez	a5,a00022b8 <bf+0x1d8>
a0002330:	00007517          	auipc	a0,0x7
a0002334:	dc850513          	addi	a0,a0,-568 # a00090f8 <minute+0x3cb8>
a0002338:	349010ef          	jal	ra,a0003e80 <printf>
a000233c:	00100513          	li	a0,1
a0002340:	7a5000ef          	jal	ra,a00032e4 <halt>
a0002344:	00012783          	lw	a5,0(sp)
a0002348:	0007c583          	lbu	a1,0(a5)
a000234c:	00a00793          	li	a5,10
a0002350:	0af58263          	beq	a1,a5,a00023f4 <bf+0x314>
a0002354:	0000b617          	auipc	a2,0xb
a0002358:	74460613          	addi	a2,a2,1860 # a000da98 <x.2>
a000235c:	00062783          	lw	a5,0(a2)
a0002360:	0017f693          	andi	a3,a5,1
a0002364:	0a068c63          	beqz	a3,a000241c <bf+0x33c>
a0002368:	0044a483          	lw	s1,4(s1)
a000236c:	00178793          	addi	a5,a5,1
a0002370:	00f62023          	sw	a5,0(a2)
a0002374:	ea0494e3          	bnez	s1,a000221c <bf+0x13c>
a0002378:	f49ff06f          	j	a00022c0 <bf+0x1e0>
a000237c:	00012683          	lw	a3,0(sp)
a0002380:	0006c783          	lbu	a5,0(a3)
a0002384:	fff78793          	addi	a5,a5,-1
a0002388:	00f68023          	sb	a5,0(a3)
a000238c:	0044a483          	lw	s1,4(s1)
a0002390:	e80496e3          	bnez	s1,a000221c <bf+0x13c>
a0002394:	f2dff06f          	j	a00022c0 <bf+0x1e0>
a0002398:	00074783          	lbu	a5,0(a4)
a000239c:	00170713          	addi	a4,a4,1
a00023a0:	f0078ce3          	beqz	a5,a00022b8 <bf+0x1d8>
a00023a4:	00012683          	lw	a3,0(sp)
a00023a8:	00f68023          	sb	a5,0(a3)
a00023ac:	0044a483          	lw	s1,4(s1)
a00023b0:	e60496e3          	bnez	s1,a000221c <bf+0x13c>
a00023b4:	f0dff06f          	j	a00022c0 <bf+0x1e0>
a00023b8:	00c00513          	li	a0,12
a00023bc:	00e12223          	sw	a4,4(sp)
a00023c0:	395010ef          	jal	ra,a0003f54 <malloc>
a00023c4:	00012703          	lw	a4,0(sp)
a00023c8:	00a72223          	sw	a0,4(a4)
a00023cc:	18050a63          	beqz	a0,a0002560 <bf+0x480>
a00023d0:	00c00613          	li	a2,12
a00023d4:	00000593          	li	a1,0
a00023d8:	518010ef          	jal	ra,a00038f0 <memset>
a00023dc:	00012703          	lw	a4,0(sp)
a00023e0:	00472783          	lw	a5,4(a4)
a00023e4:	00e7a423          	sw	a4,8(a5)
a00023e8:	00f12023          	sw	a5,0(sp)
a00023ec:	00412703          	lw	a4,4(sp)
a00023f0:	f25ff06f          	j	a0002314 <bf+0x234>
a00023f4:	0000b697          	auipc	a3,0xb
a00023f8:	6a868693          	addi	a3,a3,1704 # a000da9c <y.3>
a00023fc:	0006a783          	lw	a5,0(a3)
a0002400:	0044a483          	lw	s1,4(s1)
a0002404:	0000b617          	auipc	a2,0xb
a0002408:	68062a23          	sw	zero,1684(a2) # a000da98 <x.2>
a000240c:	00178793          	addi	a5,a5,1
a0002410:	00f6a023          	sw	a5,0(a3)
a0002414:	e00494e3          	bnez	s1,a000221c <bf+0x13c>
a0002418:	ea9ff06f          	j	a00022c0 <bf+0x1e0>
a000241c:	00007297          	auipc	t0,0x7
a0002420:	f5728293          	addi	t0,t0,-169 # a0009373 <last_c.1>
a0002424:	0002c383          	lbu	t2,0(t0)
a0002428:	01f7d513          	srli	a0,a5,0x1f
a000242c:	00f50533          	add	a0,a0,a5
a0002430:	0000b317          	auipc	t1,0xb
a0002434:	66c32303          	lw	t1,1644(t1) # a000da9c <y.3>
a0002438:	40155513          	srai	a0,a0,0x1
a000243c:	10b38c63          	beq	t2,a1,a0002554 <bf+0x474>
a0002440:	00b28023          	sb	a1,0(t0)
a0002444:	02000793          	li	a5,32
a0002448:	06f58e63          	beq	a1,a5,a00024c4 <bf+0x3e4>
a000244c:	01900693          	li	a3,25
a0002450:	02d5d6b3          	divu	a3,a1,a3
a0002454:	00500293          	li	t0,5
a0002458:	00369793          	slli	a5,a3,0x3
a000245c:	40d787b3          	sub	a5,a5,a3
a0002460:	00579393          	slli	t2,a5,0x5
a0002464:	007787b3          	add	a5,a5,t2
a0002468:	00f587b3          	add	a5,a1,a5
a000246c:	0ff7f793          	zext.b	a5,a5
a0002470:	0257d5b3          	divu	a1,a5,t0
a0002474:	00869693          	slli	a3,a3,0x8
a0002478:	00259393          	slli	t2,a1,0x2
a000247c:	007583b3          	add	t2,a1,t2
a0002480:	407787b3          	sub	a5,a5,t2
a0002484:	00859593          	slli	a1,a1,0x8
a0002488:	0256c6b3          	div	a3,a3,t0
a000248c:	0ff7f793          	zext.b	a5,a5
a0002490:	00879793          	slli	a5,a5,0x8
a0002494:	00ff03b7          	lui	t2,0xff0
a0002498:	0255c5b3          	div	a1,a1,t0
a000249c:	01069693          	slli	a3,a3,0x10
a00024a0:	0076f6b3          	and	a3,a3,t2
a00024a4:	0257c7b3          	div	a5,a5,t0
a00024a8:	000102b7          	lui	t0,0x10
a00024ac:	00859593          	slli	a1,a1,0x8
a00024b0:	fff28293          	addi	t0,t0,-1 # ffff <_entry_offset+0xffff>
a00024b4:	0055f5b3          	and	a1,a1,t0
a00024b8:	00b6e6b3          	or	a3,a3,a1
a00024bc:	0ff7f793          	zext.b	a5,a5
a00024c0:	00f6e6b3          	or	a3,a3,a5
a00024c4:	00009297          	auipc	t0,0x9
a00024c8:	28828293          	addi	t0,t0,648 # a000b74c <buf.0>
a00024cc:	00028793          	mv	a5,t0
a00024d0:	00009597          	auipc	a1,0x9
a00024d4:	2bc58593          	addi	a1,a1,700 # a000b78c <buf.4>
a00024d8:	00d7a023          	sw	a3,0(a5)
a00024dc:	00478793          	addi	a5,a5,4
a00024e0:	feb79ce3          	bne	a5,a1,a00024d8 <bf+0x3f8>
a00024e4:	00251693          	slli	a3,a0,0x2
a00024e8:	00400793          	li	a5,4
a00024ec:	00231313          	slli	t1,t1,0x2
a00024f0:	01410593          	addi	a1,sp,20
a00024f4:	00b00513          	li	a0,11
a00024f8:	00e12223          	sw	a4,4(sp)
a00024fc:	00d12a23          	sw	a3,20(sp)
a0002500:	00612c23          	sw	t1,24(sp)
a0002504:	00512e23          	sw	t0,28(sp)
a0002508:	02f12023          	sw	a5,32(sp)
a000250c:	02f12223          	sw	a5,36(sp)
a0002510:	02010423          	sb	zero,40(sp)
a0002514:	759000ef          	jal	ra,a000346c <ioe_write>
a0002518:	00100793          	li	a5,1
a000251c:	01410593          	addi	a1,sp,20
a0002520:	00b00513          	li	a0,11
a0002524:	02f10423          	sb	a5,40(sp)
a0002528:	00012a23          	sw	zero,20(sp)
a000252c:	00012c23          	sw	zero,24(sp)
a0002530:	00012e23          	sw	zero,28(sp)
a0002534:	02012023          	sw	zero,32(sp)
a0002538:	02012223          	sw	zero,36(sp)
a000253c:	731000ef          	jal	ra,a000346c <ioe_write>
a0002540:	0000b617          	auipc	a2,0xb
a0002544:	55860613          	addi	a2,a2,1368 # a000da98 <x.2>
a0002548:	00062783          	lw	a5,0(a2)
a000254c:	00412703          	lw	a4,4(sp)
a0002550:	e19ff06f          	j	a0002368 <bf+0x288>
a0002554:	00009297          	auipc	t0,0x9
a0002558:	1f828293          	addi	t0,t0,504 # a000b74c <buf.0>
a000255c:	f89ff06f          	j	a00024e4 <bf+0x404>
a0002560:	00007517          	auipc	a0,0x7
a0002564:	b7c50513          	addi	a0,a0,-1156 # a00090dc <minute+0x3c9c>
a0002568:	119010ef          	jal	ra,a0003e80 <printf>
a000256c:	00100513          	li	a0,1
a0002570:	575000ef          	jal	ra,a00032e4 <halt>

a0002574 <galton>:
a0002574:	fa410113          	addi	sp,sp,-92
a0002578:	04b10793          	addi	a5,sp,75
a000257c:	ff87f793          	andi	a5,a5,-8
a0002580:	02c10593          	addi	a1,sp,44
a0002584:	00900513          	li	a0,9
a0002588:	00f12a23          	sw	a5,20(sp)
a000258c:	04112c23          	sw	ra,88(sp)
a0002590:	04812a23          	sw	s0,84(sp)
a0002594:	04912823          	sw	s1,80(sp)
a0002598:	6b9000ef          	jal	ra,a0003450 <ioe_read>
a000259c:	03412683          	lw	a3,52(sp)
a00025a0:	03200713          	li	a4,50
a00025a4:	41f6d793          	srai	a5,a3,0x1f
a00025a8:	0037f793          	andi	a5,a5,3
a00025ac:	00d787b3          	add	a5,a5,a3
a00025b0:	4027d793          	srai	a5,a5,0x2
a00025b4:	ffe78793          	addi	a5,a5,-2
a00025b8:	66f75663          	bge	a4,a5,a0002c24 <galton+0x6b0>
a00025bc:	0000b797          	auipc	a5,0xb
a00025c0:	4ec78793          	addi	a5,a5,1260 # a000daa8 <h>
a00025c4:	00f12823          	sw	a5,16(sp)
a00025c8:	00e7a023          	sw	a4,0(a5)
a00025cc:	00000413          	li	s0,0
a00025d0:	0000a497          	auipc	s1,0xa
a00025d4:	83c48493          	addi	s1,s1,-1988 # a000be0c <buf.3>
a00025d8:	19000793          	li	a5,400
a00025dc:	02f12c23          	sw	a5,56(sp)
a00025e0:	02c10593          	addi	a1,sp,44
a00025e4:	00100793          	li	a5,1
a00025e8:	00b00513          	li	a0,11
a00025ec:	02812823          	sw	s0,48(sp)
a00025f0:	02f12e23          	sw	a5,60(sp)
a00025f4:	02012623          	sw	zero,44(sp)
a00025f8:	02912a23          	sw	s1,52(sp)
a00025fc:	04010023          	sb	zero,64(sp)
a0002600:	66d000ef          	jal	ra,a000346c <ioe_write>
a0002604:	00140413          	addi	s0,s0,1
a0002608:	12c00793          	li	a5,300
a000260c:	fcf416e3          	bne	s0,a5,a00025d8 <galton+0x64>
a0002610:	01012783          	lw	a5,16(sp)
a0002614:	0007a483          	lw	s1,0(a5)
a0002618:	00449613          	slli	a2,s1,0x4
a000261c:	00960633          	add	a2,a2,s1
a0002620:	00060513          	mv	a0,a2
a0002624:	00c12023          	sw	a2,0(sp)
a0002628:	12d010ef          	jal	ra,a0003f54 <malloc>
a000262c:	00012603          	lw	a2,0(sp)
a0002630:	0000b797          	auipc	a5,0xb
a0002634:	47078793          	addi	a5,a5,1136 # a000daa0 <b>
a0002638:	02000593          	li	a1,32
a000263c:	00a7a023          	sw	a0,0(a5)
a0002640:	00050413          	mv	s0,a0
a0002644:	2ac010ef          	jal	ra,a00038f0 <memset>
a0002648:	00002537          	lui	a0,0x2
a000264c:	109010ef          	jal	ra,a0003f54 <malloc>
a0002650:	00001737          	lui	a4,0x1
a0002654:	00e50733          	add	a4,a0,a4
a0002658:	0000b697          	auipc	a3,0xb
a000265c:	45868693          	addi	a3,a3,1112 # a000dab0 <x>
a0002660:	0000b797          	auipc	a5,0xb
a0002664:	45478793          	addi	a5,a5,1108 # a000dab4 <y>
a0002668:	00a6a023          	sw	a0,0(a3)
a000266c:	00e7a023          	sw	a4,0(a5)
a0002670:	02240413          	addi	s0,s0,34
a0002674:	00000593          	li	a1,0
a0002678:	00000613          	li	a2,0
a000267c:	02a00693          	li	a3,42
a0002680:	ff800513          	li	a0,-8
a0002684:	ffe5f713          	andi	a4,a1,-2
a0002688:	00a40313          	addi	t1,s0,10
a000268c:	00840793          	addi	a5,s0,8
a0002690:	00670733          	add	a4,a4,t1
a0002694:	00d78023          	sb	a3,0(a5)
a0002698:	00278793          	addi	a5,a5,2
a000269c:	fef71ce3          	bne	a4,a5,a0002694 <galton+0x120>
a00026a0:	fff60613          	addi	a2,a2,-1
a00026a4:	00258593          	addi	a1,a1,2
a00026a8:	02140413          	addi	s0,s0,33
a00026ac:	fca61ce3          	bne	a2,a0,a0002684 <galton+0x110>
a00026b0:	1e905463          	blez	s1,a0002898 <galton+0x324>
a00026b4:	00012423          	sw	zero,8(sp)
a00026b8:	00012623          	sw	zero,12(sp)
a00026bc:	00009497          	auipc	s1,0x9
a00026c0:	75048493          	addi	s1,s1,1872 # a000be0c <buf.3>
a00026c4:	00c12783          	lw	a5,12(sp)
a00026c8:	00012023          	sw	zero,0(sp)
a00026cc:	00279793          	slli	a5,a5,0x2
a00026d0:	00f12223          	sw	a5,4(sp)
a00026d4:	0000b797          	auipc	a5,0xb
a00026d8:	3cc78793          	addi	a5,a5,972 # a000daa0 <b>
a00026dc:	00812603          	lw	a2,8(sp)
a00026e0:	0007a783          	lw	a5,0(a5)
a00026e4:	00007717          	auipc	a4,0x7
a00026e8:	c9070713          	addi	a4,a4,-880 # a0009374 <last_c.2>
a00026ec:	02a00693          	li	a3,42
a00026f0:	00c787b3          	add	a5,a5,a2
a00026f4:	00012603          	lw	a2,0(sp)
a00026f8:	00074703          	lbu	a4,0(a4)
a00026fc:	00c787b3          	add	a5,a5,a2
a0002700:	0007c783          	lbu	a5,0(a5)
a0002704:	3cd78e63          	beq	a5,a3,a0002ae0 <galton+0x56c>
a0002708:	0ae78463          	beq	a5,a4,a00027b0 <galton+0x23c>
a000270c:	00007717          	auipc	a4,0x7
a0002710:	c6870713          	addi	a4,a4,-920 # a0009374 <last_c.2>
a0002714:	00f70023          	sb	a5,0(a4)
a0002718:	02000693          	li	a3,32
a000271c:	00000713          	li	a4,0
a0002720:	06d78e63          	beq	a5,a3,a000279c <galton+0x228>
a0002724:	01900713          	li	a4,25
a0002728:	02e7d733          	divu	a4,a5,a4
a000272c:	00500693          	li	a3,5
a0002730:	00371613          	slli	a2,a4,0x3
a0002734:	40e60633          	sub	a2,a2,a4
a0002738:	00561593          	slli	a1,a2,0x5
a000273c:	00b60633          	add	a2,a2,a1
a0002740:	00c787b3          	add	a5,a5,a2
a0002744:	0ff7f793          	zext.b	a5,a5
a0002748:	02d7d633          	divu	a2,a5,a3
a000274c:	00871713          	slli	a4,a4,0x8
a0002750:	00261593          	slli	a1,a2,0x2
a0002754:	00b605b3          	add	a1,a2,a1
a0002758:	00861613          	slli	a2,a2,0x8
a000275c:	02d64633          	div	a2,a2,a3
a0002760:	40b787b3          	sub	a5,a5,a1
a0002764:	0ff7f793          	zext.b	a5,a5
a0002768:	00879793          	slli	a5,a5,0x8
a000276c:	00ff05b7          	lui	a1,0xff0
a0002770:	02d74733          	div	a4,a4,a3
a0002774:	02d7c7b3          	div	a5,a5,a3
a0002778:	00861693          	slli	a3,a2,0x8
a000277c:	00010637          	lui	a2,0x10
a0002780:	01071713          	slli	a4,a4,0x10
a0002784:	fff60613          	addi	a2,a2,-1 # ffff <_entry_offset+0xffff>
a0002788:	00b77733          	and	a4,a4,a1
a000278c:	00c6f6b3          	and	a3,a3,a2
a0002790:	00d76733          	or	a4,a4,a3
a0002794:	0ff7f793          	zext.b	a5,a5
a0002798:	00f76733          	or	a4,a4,a5
a000279c:	00009797          	auipc	a5,0x9
a00027a0:	63078793          	addi	a5,a5,1584 # a000bdcc <buf.1>
a00027a4:	00e7a023          	sw	a4,0(a5)
a00027a8:	00478793          	addi	a5,a5,4
a00027ac:	fef49ce3          	bne	s1,a5,a00027a4 <galton+0x230>
a00027b0:	00012783          	lw	a5,0(sp)
a00027b4:	00400713          	li	a4,4
a00027b8:	02c10593          	addi	a1,sp,44
a00027bc:	00379413          	slli	s0,a5,0x3
a00027c0:	00412783          	lw	a5,4(sp)
a00027c4:	00b00513          	li	a0,11
a00027c8:	02e12c23          	sw	a4,56(sp)
a00027cc:	02f12823          	sw	a5,48(sp)
a00027d0:	00009797          	auipc	a5,0x9
a00027d4:	5fc78793          	addi	a5,a5,1532 # a000bdcc <buf.1>
a00027d8:	02f12a23          	sw	a5,52(sp)
a00027dc:	02e12e23          	sw	a4,60(sp)
a00027e0:	02812623          	sw	s0,44(sp)
a00027e4:	04010023          	sb	zero,64(sp)
a00027e8:	485000ef          	jal	ra,a000346c <ioe_write>
a00027ec:	00007797          	auipc	a5,0x7
a00027f0:	b8878793          	addi	a5,a5,-1144 # a0009374 <last_c.2>
a00027f4:	0007c703          	lbu	a4,0(a5)
a00027f8:	02000793          	li	a5,32
a00027fc:	02f70463          	beq	a4,a5,a0002824 <galton+0x2b0>
a0002800:	02000713          	li	a4,32
a0002804:	00007797          	auipc	a5,0x7
a0002808:	b7078793          	addi	a5,a5,-1168 # a0009374 <last_c.2>
a000280c:	00e78023          	sb	a4,0(a5)
a0002810:	00009717          	auipc	a4,0x9
a0002814:	5bc70713          	addi	a4,a4,1468 # a000bdcc <buf.1>
a0002818:	00072023          	sw	zero,0(a4)
a000281c:	00470713          	addi	a4,a4,4
a0002820:	fee49ce3          	bne	s1,a4,a0002818 <galton+0x2a4>
a0002824:	00440793          	addi	a5,s0,4
a0002828:	02f12623          	sw	a5,44(sp)
a000282c:	00412783          	lw	a5,4(sp)
a0002830:	00400713          	li	a4,4
a0002834:	02c10593          	addi	a1,sp,44
a0002838:	02f12823          	sw	a5,48(sp)
a000283c:	00009797          	auipc	a5,0x9
a0002840:	59078793          	addi	a5,a5,1424 # a000bdcc <buf.1>
a0002844:	02f12a23          	sw	a5,52(sp)
a0002848:	00012783          	lw	a5,0(sp)
a000284c:	00b00513          	li	a0,11
a0002850:	02e12c23          	sw	a4,56(sp)
a0002854:	00178793          	addi	a5,a5,1
a0002858:	00078413          	mv	s0,a5
a000285c:	00f12023          	sw	a5,0(sp)
a0002860:	02e12e23          	sw	a4,60(sp)
a0002864:	04010023          	sb	zero,64(sp)
a0002868:	405000ef          	jal	ra,a000346c <ioe_write>
a000286c:	01100793          	li	a5,17
a0002870:	e6f412e3          	bne	s0,a5,a00026d4 <galton+0x160>
a0002874:	01012783          	lw	a5,16(sp)
a0002878:	00c12703          	lw	a4,12(sp)
a000287c:	00812683          	lw	a3,8(sp)
a0002880:	0007a783          	lw	a5,0(a5)
a0002884:	00170713          	addi	a4,a4,1
a0002888:	01168693          	addi	a3,a3,17
a000288c:	00e12623          	sw	a4,12(sp)
a0002890:	00d12423          	sw	a3,8(sp)
a0002894:	e2f748e3          	blt	a4,a5,a00026c4 <galton+0x150>
a0002898:	00100793          	li	a5,1
a000289c:	00b00513          	li	a0,11
a00028a0:	02c10593          	addi	a1,sp,44
a00028a4:	04f10023          	sb	a5,64(sp)
a00028a8:	02012623          	sw	zero,44(sp)
a00028ac:	02012823          	sw	zero,48(sp)
a00028b0:	02012a23          	sw	zero,52(sp)
a00028b4:	02012c23          	sw	zero,56(sp)
a00028b8:	02012e23          	sw	zero,60(sp)
a00028bc:	3b1000ef          	jal	ra,a000346c <ioe_write>
a00028c0:	01412403          	lw	s0,20(sp)
a00028c4:	00600513          	li	a0,6
a00028c8:	000014b7          	lui	s1,0x1
a00028cc:	00040593          	mv	a1,s0
a00028d0:	381000ef          	jal	ra,a0003450 <ioe_read>
a00028d4:	00042783          	lw	a5,0(s0)
a00028d8:	00442703          	lw	a4,4(s0)
a00028dc:	77048493          	addi	s1,s1,1904 # 1770 <_entry_offset+0x1770>
a00028e0:	009784b3          	add	s1,a5,s1
a00028e4:	00f4b7b3          	sltu	a5,s1,a5
a00028e8:	00040693          	mv	a3,s0
a00028ec:	00e78433          	add	s0,a5,a4
a00028f0:	00912023          	sw	s1,0(sp)
a00028f4:	00040493          	mv	s1,s0
a00028f8:	00068413          	mv	s0,a3
a00028fc:	00040593          	mv	a1,s0
a0002900:	00600513          	li	a0,6
a0002904:	34d000ef          	jal	ra,a0003450 <ioe_read>
a0002908:	00442783          	lw	a5,4(s0)
a000290c:	00042683          	lw	a3,0(s0)
a0002910:	fe97e6e3          	bltu	a5,s1,a00028fc <galton+0x388>
a0002914:	00f49663          	bne	s1,a5,a0002920 <galton+0x3ac>
a0002918:	00012783          	lw	a5,0(sp)
a000291c:	fef6e0e3          	bltu	a3,a5,a00028fc <galton+0x388>
a0002920:	0000b797          	auipc	a5,0xb
a0002924:	18478793          	addi	a5,a5,388 # a000daa4 <cnt>
a0002928:	0007a403          	lw	s0,0(a5)
a000292c:	0e805463          	blez	s0,a0002a14 <galton+0x4a0>
a0002930:	00000393          	li	t2,0
a0002934:	0000b797          	auipc	a5,0xb
a0002938:	18078793          	addi	a5,a5,384 # a000dab4 <y>
a000293c:	0007a703          	lw	a4,0(a5)
a0002940:	0000b697          	auipc	a3,0xb
a0002944:	17068693          	addi	a3,a3,368 # a000dab0 <x>
a0002948:	00239793          	slli	a5,t2,0x2
a000294c:	0006a683          	lw	a3,0(a3)
a0002950:	00f70733          	add	a4,a4,a5
a0002954:	00072603          	lw	a2,0(a4)
a0002958:	00f686b3          	add	a3,a3,a5
a000295c:	0006a483          	lw	s1,0(a3)
a0002960:	0a064063          	bltz	a2,a0002a00 <galton+0x48c>
a0002964:	01012783          	lw	a5,16(sp)
a0002968:	0007a783          	lw	a5,0(a5)
a000296c:	fff78793          	addi	a5,a5,-1
a0002970:	08f60463          	beq	a2,a5,a00029f8 <galton+0x484>
a0002974:	00160293          	addi	t0,a2,1
a0002978:	0000b797          	auipc	a5,0xb
a000297c:	12878793          	addi	a5,a5,296 # a000daa0 <b>
a0002980:	0007a303          	lw	t1,0(a5)
a0002984:	00429413          	slli	s0,t0,0x4
a0002988:	00540433          	add	s0,s0,t0
a000298c:	008485b3          	add	a1,s1,s0
a0002990:	00b305b3          	add	a1,t1,a1
a0002994:	0005c503          	lbu	a0,0(a1) # ff0000 <_entry_offset+0xff0000>
a0002998:	fef40793          	addi	a5,s0,-17
a000299c:	00f12223          	sw	a5,4(sp)
a00029a0:	02000413          	li	s0,32
a00029a4:	00f487b3          	add	a5,s1,a5
a00029a8:	16850463          	beq	a0,s0,a0002b10 <galton+0x59c>
a00029ac:	00300413          	li	s0,3
a00029b0:	02a00293          	li	t0,42
a00029b4:	00812023          	sw	s0,0(sp)
a00029b8:	00551663          	bne	a0,t0,a00029c4 <galton+0x450>
a00029bc:	00100513          	li	a0,1
a00029c0:	00a12023          	sw	a0,0(sp)
a00029c4:	00f00513          	li	a0,15
a00029c8:	00f302b3          	add	t0,t1,a5
a00029cc:	16954263          	blt	a0,s1,a0002b30 <galton+0x5bc>
a00029d0:	0012c503          	lbu	a0,1(t0)
a00029d4:	02000413          	li	s0,32
a00029d8:	06850263          	beq	a0,s0,a0002a3c <galton+0x4c8>
a00029dc:	14049a63          	bnez	s1,a0002b30 <galton+0x5bc>
a00029e0:	00f307b3          	add	a5,t1,a5
a00029e4:	0007c603          	lbu	a2,0(a5)
a00029e8:	02000593          	li	a1,32
a00029ec:	00b78023          	sb	a1,0(a5)
a00029f0:	0096a023          	sw	s1,0(a3)
a00029f4:	00c28023          	sb	a2,0(t0)
a00029f8:	fff00793          	li	a5,-1
a00029fc:	00f72023          	sw	a5,0(a4)
a0002a00:	0000b797          	auipc	a5,0xb
a0002a04:	0a478793          	addi	a5,a5,164 # a000daa4 <cnt>
a0002a08:	0007a403          	lw	s0,0(a5)
a0002a0c:	00138393          	addi	t2,t2,1 # ff0001 <_entry_offset+0xff0001>
a0002a10:	f283c2e3          	blt	t2,s0,a0002934 <galton+0x3c0>
a0002a14:	0000b697          	auipc	a3,0xb
a0002a18:	09868693          	addi	a3,a3,152 # a000daac <step.0>
a0002a1c:	0006a783          	lw	a5,0(a3)
a0002a20:	00200713          	li	a4,2
a0002a24:	00178793          	addi	a5,a5,1
a0002a28:	00f6a023          	sw	a5,0(a3)
a0002a2c:	18e78263          	beq	a5,a4,a0002bb0 <galton+0x63c>
a0002a30:	01012783          	lw	a5,16(sp)
a0002a34:	0007a483          	lw	s1,0(a5)
a0002a38:	c79ff06f          	j	a00026b0 <galton+0x13c>
a0002a3c:	0015c503          	lbu	a0,1(a1)
a0002a40:	02000413          	li	s0,32
a0002a44:	f8851ce3          	bne	a0,s0,a00029dc <galton+0x468>
a0002a48:	02712423          	sw	t2,40(sp)
a0002a4c:	02512223          	sw	t0,36(sp)
a0002a50:	02b12023          	sw	a1,32(sp)
a0002a54:	00c12e23          	sw	a2,28(sp)
a0002a58:	00612c23          	sw	t1,24(sp)
a0002a5c:	00e12623          	sw	a4,12(sp)
a0002a60:	00d12423          	sw	a3,8(sp)
a0002a64:	4bc010ef          	jal	ra,a0003f20 <rand>
a0002a68:	00012783          	lw	a5,0(sp)
a0002a6c:	00812683          	lw	a3,8(sp)
a0002a70:	00c12703          	lw	a4,12(sp)
a0002a74:	02f567b3          	rem	a5,a0,a5
a0002a78:	01812303          	lw	t1,24(sp)
a0002a7c:	01c12603          	lw	a2,28(sp)
a0002a80:	02012583          	lw	a1,32(sp)
a0002a84:	02412283          	lw	t0,36(sp)
a0002a88:	02812383          	lw	t2,40(sp)
a0002a8c:	0017b793          	seqz	a5,a5
a0002a90:	00078413          	mv	s0,a5
a0002a94:	20049263          	bnez	s1,a0002c98 <galton+0x724>
a0002a98:	00072583          	lw	a1,0(a4)
a0002a9c:	0006a503          	lw	a0,0(a3)
a0002aa0:	00459793          	slli	a5,a1,0x4
a0002aa4:	00b787b3          	add	a5,a5,a1
a0002aa8:	00a787b3          	add	a5,a5,a0
a0002aac:	f2040ae3          	beqz	s0,a00029e0 <galton+0x46c>
a0002ab0:	00412583          	lw	a1,4(sp)
a0002ab4:	00148493          	addi	s1,s1,1
a0002ab8:	00b48433          	add	s0,s1,a1
a0002abc:	00f307b3          	add	a5,t1,a5
a0002ac0:	02000513          	li	a0,32
a0002ac4:	0007c583          	lbu	a1,0(a5)
a0002ac8:	00a78023          	sb	a0,0(a5)
a0002acc:	00c72023          	sw	a2,0(a4)
a0002ad0:	0096a023          	sw	s1,0(a3)
a0002ad4:	00830333          	add	t1,t1,s0
a0002ad8:	00b30023          	sb	a1,0(t1)
a0002adc:	f25ff06f          	j	a0002a00 <galton+0x48c>
a0002ae0:	ccf708e3          	beq	a4,a5,a00027b0 <galton+0x23c>
a0002ae4:	00007717          	auipc	a4,0x7
a0002ae8:	89070713          	addi	a4,a4,-1904 # a0009374 <last_c.2>
a0002aec:	00f70023          	sb	a5,0(a4)
a0002af0:	0033a737          	lui	a4,0x33a
a0002af4:	00009797          	auipc	a5,0x9
a0002af8:	2d878793          	addi	a5,a5,728 # a000bdcc <buf.1>
a0002afc:	96670713          	addi	a4,a4,-1690 # 339966 <_entry_offset+0x339966>
a0002b00:	00e7a023          	sw	a4,0(a5)
a0002b04:	00478793          	addi	a5,a5,4
a0002b08:	caf484e3          	beq	s1,a5,a00027b0 <galton+0x23c>
a0002b0c:	ff5ff06f          	j	a0002b00 <galton+0x58c>
a0002b10:	00f307b3          	add	a5,t1,a5
a0002b14:	02000513          	li	a0,32
a0002b18:	0007c603          	lbu	a2,0(a5)
a0002b1c:	00a78023          	sb	a0,0(a5)
a0002b20:	00572023          	sw	t0,0(a4)
a0002b24:	0096a023          	sw	s1,0(a3)
a0002b28:	00c58023          	sb	a2,0(a1)
a0002b2c:	ed5ff06f          	j	a0002a00 <galton+0x48c>
a0002b30:	fff2c503          	lbu	a0,-1(t0)
a0002b34:	02000413          	li	s0,32
a0002b38:	ea8514e3          	bne	a0,s0,a00029e0 <galton+0x46c>
a0002b3c:	fff5c783          	lbu	a5,-1(a1)
a0002b40:	02000593          	li	a1,32
a0002b44:	00000413          	li	s0,0
a0002b48:	18b79663          	bne	a5,a1,a0002cd4 <galton+0x760>
a0002b4c:	02712223          	sw	t2,36(sp)
a0002b50:	02512023          	sw	t0,32(sp)
a0002b54:	00c12e23          	sw	a2,28(sp)
a0002b58:	00612c23          	sw	t1,24(sp)
a0002b5c:	00e12623          	sw	a4,12(sp)
a0002b60:	00d12423          	sw	a3,8(sp)
a0002b64:	3bc010ef          	jal	ra,a0003f20 <rand>
a0002b68:	00012783          	lw	a5,0(sp)
a0002b6c:	00812683          	lw	a3,8(sp)
a0002b70:	00c12703          	lw	a4,12(sp)
a0002b74:	02f567b3          	rem	a5,a0,a5
a0002b78:	01812303          	lw	t1,24(sp)
a0002b7c:	01c12603          	lw	a2,28(sp)
a0002b80:	02012283          	lw	t0,32(sp)
a0002b84:	02412383          	lw	t2,36(sp)
a0002b88:	f00798e3          	bnez	a5,a0002a98 <galton+0x524>
a0002b8c:	00072503          	lw	a0,0(a4)
a0002b90:	0006a583          	lw	a1,0(a3)
a0002b94:	fff48493          	addi	s1,s1,-1
a0002b98:	00451793          	slli	a5,a0,0x4
a0002b9c:	00a787b3          	add	a5,a5,a0
a0002ba0:	00b787b3          	add	a5,a5,a1
a0002ba4:	00412583          	lw	a1,4(sp)
a0002ba8:	00b48433          	add	s0,s1,a1
a0002bac:	f11ff06f          	j	a0002abc <galton+0x548>
a0002bb0:	3ff00793          	li	a5,1023
a0002bb4:	e687cee3          	blt	a5,s0,a0002a30 <galton+0x4bc>
a0002bb8:	0000b797          	auipc	a5,0xb
a0002bbc:	ef878793          	addi	a5,a5,-264 # a000dab0 <x>
a0002bc0:	0007a783          	lw	a5,0(a5)
a0002bc4:	0000b717          	auipc	a4,0xb
a0002bc8:	ef070713          	addi	a4,a4,-272 # a000dab4 <y>
a0002bcc:	00072703          	lw	a4,0(a4)
a0002bd0:	00241693          	slli	a3,s0,0x2
a0002bd4:	00d787b3          	add	a5,a5,a3
a0002bd8:	00800613          	li	a2,8
a0002bdc:	00c7a023          	sw	a2,0(a5)
a0002be0:	00d70733          	add	a4,a4,a3
a0002be4:	00072023          	sw	zero,0(a4)
a0002be8:	0000b697          	auipc	a3,0xb
a0002bec:	eb868693          	addi	a3,a3,-328 # a000daa0 <b>
a0002bf0:	0006a483          	lw	s1,0(a3)
a0002bf4:	0007a683          	lw	a3,0(a5)
a0002bf8:	0000b617          	auipc	a2,0xb
a0002bfc:	ea062a23          	sw	zero,-332(a2) # a000daac <step.0>
a0002c00:	02000613          	li	a2,32
a0002c04:	00d486b3          	add	a3,s1,a3
a0002c08:	0006c683          	lbu	a3,0(a3)
a0002c0c:	02c68e63          	beq	a3,a2,a0002c48 <galton+0x6d4>
a0002c10:	05812083          	lw	ra,88(sp)
a0002c14:	05412403          	lw	s0,84(sp)
a0002c18:	05012483          	lw	s1,80(sp)
a0002c1c:	05c10113          	addi	sp,sp,92
a0002c20:	00008067          	ret
a0002c24:	01d00713          	li	a4,29
a0002c28:	08f74c63          	blt	a4,a5,a0002cc0 <galton+0x74c>
a0002c2c:	0000b797          	auipc	a5,0xb
a0002c30:	e7c78793          	addi	a5,a5,-388 # a000daa8 <h>
a0002c34:	00078713          	mv	a4,a5
a0002c38:	00f12823          	sw	a5,16(sp)
a0002c3c:	01e00793          	li	a5,30
a0002c40:	00f72023          	sw	a5,0(a4)
a0002c44:	989ff06f          	j	a00025cc <galton+0x58>
a0002c48:	00e12223          	sw	a4,4(sp)
a0002c4c:	00f12023          	sw	a5,0(sp)
a0002c50:	2d0010ef          	jal	ra,a0003f20 <rand>
a0002c54:	05000613          	li	a2,80
a0002c58:	02c566b3          	rem	a3,a0,a2
a0002c5c:	00412703          	lw	a4,4(sp)
a0002c60:	00012783          	lw	a5,0(sp)
a0002c64:	00140413          	addi	s0,s0,1
a0002c68:	00072703          	lw	a4,0(a4)
a0002c6c:	0007a603          	lw	a2,0(a5)
a0002c70:	00471793          	slli	a5,a4,0x4
a0002c74:	00e787b3          	add	a5,a5,a4
a0002c78:	00f487b3          	add	a5,s1,a5
a0002c7c:	0000b717          	auipc	a4,0xb
a0002c80:	e2870713          	addi	a4,a4,-472 # a000daa4 <cnt>
a0002c84:	00c787b3          	add	a5,a5,a2
a0002c88:	00872023          	sw	s0,0(a4)
a0002c8c:	02b68713          	addi	a4,a3,43
a0002c90:	00e78023          	sb	a4,0(a5)
a0002c94:	d9dff06f          	j	a0002a30 <galton+0x4bc>
a0002c98:	fff2c783          	lbu	a5,-1(t0)
a0002c9c:	02000513          	li	a0,32
a0002ca0:	dea79ce3          	bne	a5,a0,a0002a98 <galton+0x524>
a0002ca4:	fff5c783          	lbu	a5,-1(a1)
a0002ca8:	00012583          	lw	a1,0(sp)
a0002cac:	00158593          	addi	a1,a1,1
a0002cb0:	00b12023          	sw	a1,0(sp)
a0002cb4:	02000593          	li	a1,32
a0002cb8:	deb790e3          	bne	a5,a1,a0002a98 <galton+0x524>
a0002cbc:	e91ff06f          	j	a0002b4c <galton+0x5d8>
a0002cc0:	0000b717          	auipc	a4,0xb
a0002cc4:	de870713          	addi	a4,a4,-536 # a000daa8 <h>
a0002cc8:	00e12823          	sw	a4,16(sp)
a0002ccc:	00f72023          	sw	a5,0(a4)
a0002cd0:	8fdff06f          	j	a00025cc <galton+0x58>
a0002cd4:	01100793          	li	a5,17
a0002cd8:	02c787b3          	mul	a5,a5,a2
a0002cdc:	009787b3          	add	a5,a5,s1
a0002ce0:	d01ff06f          	j	a00029e0 <galton+0x46c>

a0002ce4 <donut>:
a0002ce4:	f8c10113          	addi	sp,sp,-116
a0002ce8:	06310793          	addi	a5,sp,99
a0002cec:	ff87f793          	andi	a5,a5,-8
a0002cf0:	04f12023          	sw	a5,64(sp)
a0002cf4:	40000793          	li	a5,1024
a0002cf8:	00f12423          	sw	a5,8(sp)
a0002cfc:	00f12823          	sw	a5,16(sp)
a0002d00:	000017b7          	lui	a5,0x1
a0002d04:	80078793          	addi	a5,a5,-2048 # 800 <_entry_offset+0x800>
a0002d08:	06112823          	sw	ra,112(sp)
a0002d0c:	06812623          	sw	s0,108(sp)
a0002d10:	06912423          	sw	s1,104(sp)
a0002d14:	00012223          	sw	zero,4(sp)
a0002d18:	00012a23          	sw	zero,20(sp)
a0002d1c:	02f12e23          	sw	a5,60(sp)
a0002d20:	6e000613          	li	a2,1760
a0002d24:	02000593          	li	a1,32
a0002d28:	00009517          	auipc	a0,0x9
a0002d2c:	72450513          	addi	a0,a0,1828 # a000c44c <b>
a0002d30:	3c1000ef          	jal	ra,a00038f0 <memset>
a0002d34:	6e000613          	li	a2,1760
a0002d38:	07f00593          	li	a1,127
a0002d3c:	0000a517          	auipc	a0,0xa
a0002d40:	47050513          	addi	a0,a0,1136 # a000d1ac <z>
a0002d44:	3ad000ef          	jal	ra,a00038f0 <memset>
a0002d48:	01412783          	lw	a5,20(sp)
a0002d4c:	02012a23          	sw	zero,52(sp)
a0002d50:	40f007b3          	neg	a5,a5
a0002d54:	02f12423          	sw	a5,40(sp)
a0002d58:	01012783          	lw	a5,16(sp)
a0002d5c:	40f007b3          	neg	a5,a5
a0002d60:	02f12623          	sw	a5,44(sp)
a0002d64:	05a00793          	li	a5,90
a0002d68:	02f12c23          	sw	a5,56(sp)
a0002d6c:	40000793          	li	a5,1024
a0002d70:	02f12823          	sw	a5,48(sp)
a0002d74:	03412703          	lw	a4,52(sp)
a0002d78:	01012783          	lw	a5,16(sp)
a0002d7c:	01412683          	lw	a3,20(sp)
a0002d80:	03012583          	lw	a1,48(sp)
a0002d84:	02e78633          	mul	a2,a5,a4
a0002d88:	03c12783          	lw	a5,60(sp)
a0002d8c:	14400413          	li	s0,324
a0002d90:	40000393          	li	t2,1024
a0002d94:	00f587b3          	add	a5,a1,a5
a0002d98:	00f12e23          	sw	a5,28(sp)
a0002d9c:	00812023          	sw	s0,0(sp)
a0002da0:	00000793          	li	a5,0
a0002da4:	02e686b3          	mul	a3,a3,a4
a0002da8:	c0067713          	andi	a4,a2,-1024
a0002dac:	40a65613          	srai	a2,a2,0xa
a0002db0:	02c12223          	sw	a2,36(sp)
a0002db4:	00500637          	lui	a2,0x500
a0002db8:	00c70733          	add	a4,a4,a2
a0002dbc:	00e12c23          	sw	a4,24(sp)
a0002dc0:	00812703          	lw	a4,8(sp)
a0002dc4:	02b70733          	mul	a4,a4,a1
a0002dc8:	40a6d693          	srai	a3,a3,0xa
a0002dcc:	00d12623          	sw	a3,12(sp)
a0002dd0:	40a75713          	srai	a4,a4,0xa
a0002dd4:	02e12023          	sw	a4,32(sp)
a0002dd8:	01c12683          	lw	a3,28(sp)
a0002ddc:	00012583          	lw	a1,0(sp)
a0002de0:	01412483          	lw	s1,20(sp)
a0002de4:	02d780b3          	mul	ra,a5,a3
a0002de8:	fff58593          	addi	a1,a1,-1
a0002dec:	00b12023          	sw	a1,0(sp)
a0002df0:	01012583          	lw	a1,16(sp)
a0002df4:	00279613          	slli	a2,a5,0x2
a0002df8:	00f60633          	add	a2,a2,a5
a0002dfc:	00239713          	slli	a4,t2,0x2
a0002e00:	00770733          	add	a4,a4,t2
a0002e04:	40865613          	srai	a2,a2,0x8
a0002e08:	40c38633          	sub	a2,t2,a2
a0002e0c:	40a0d313          	srai	t1,ra,0xa
a0002e10:	02658533          	mul	a0,a1,t1
a0002e14:	00812583          	lw	a1,8(sp)
a0002e18:	40875713          	srai	a4,a4,0x8
a0002e1c:	01400413          	li	s0,20
a0002e20:	00f70733          	add	a4,a4,a5
a0002e24:	02d382b3          	mul	t0,t2,a3
a0002e28:	00c12683          	lw	a3,12(sp)
a0002e2c:	40a55513          	srai	a0,a0,0xa
a0002e30:	40a68533          	sub	a0,a3,a0
a0002e34:	00412683          	lw	a3,4(sp)
a0002e38:	40a2d293          	srai	t0,t0,0xa
a0002e3c:	025585b3          	mul	a1,a1,t0
a0002e40:	02a686b3          	mul	a3,a3,a0
a0002e44:	02648333          	mul	t1,s1,t1
a0002e48:	01812483          	lw	s1,24(sp)
a0002e4c:	00b686b3          	add	a3,a3,a1
a0002e50:	00469593          	slli	a1,a3,0x4
a0002e54:	40d586b3          	sub	a3,a1,a3
a0002e58:	00930333          	add	t1,t1,s1
a0002e5c:	0266c6b3          	div	a3,a3,t1
a0002e60:	00b68493          	addi	s1,a3,11
a0002e64:	02c605b3          	mul	a1,a2,a2
a0002e68:	0e946a63          	bltu	s0,s1,a0002f5c <donut+0x278>
a0002e6c:	00412403          	lw	s0,4(sp)
a0002e70:	00c68693          	addi	a3,a3,12
a0002e74:	00269493          	slli	s1,a3,0x2
a0002e78:	00d486b3          	add	a3,s1,a3
a0002e7c:	ffb004b7          	lui	s1,0xffb00
a0002e80:	009304b3          	add	s1,t1,s1
a0002e84:	00469693          	slli	a3,a3,0x4
a0002e88:	40f4d493          	srai	s1,s1,0xf
a0002e8c:	025402b3          	mul	t0,s0,t0
a0002e90:	00812403          	lw	s0,8(sp)
a0002e94:	01849493          	slli	s1,s1,0x18
a0002e98:	4184d493          	srai	s1,s1,0x18
a0002e9c:	02a40533          	mul	a0,s0,a0
a0002ea0:	40a28533          	sub	a0,t0,a0
a0002ea4:	00451293          	slli	t0,a0,0x4
a0002ea8:	40a282b3          	sub	t0,t0,a0
a0002eac:	00129293          	slli	t0,t0,0x1
a0002eb0:	0262c2b3          	div	t0,t0,t1
a0002eb4:	0000a317          	auipc	t1,0xa
a0002eb8:	2f830313          	addi	t1,t1,760 # a000d1ac <z>
a0002ebc:	01928513          	addi	a0,t0,25
a0002ec0:	00a686b3          	add	a3,a3,a0
a0002ec4:	00d30533          	add	a0,t1,a3
a0002ec8:	01828293          	addi	t0,t0,24
a0002ecc:	04e00313          	li	t1,78
a0002ed0:	08536663          	bltu	t1,t0,a0002f5c <donut+0x278>
a0002ed4:	00b79793          	slli	a5,a5,0xb
a0002ed8:	40f080b3          	sub	ra,ra,a5
a0002edc:	00050783          	lb	a5,0(a0)
a0002ee0:	00009317          	auipc	t1,0x9
a0002ee4:	56c30313          	addi	t1,t1,1388 # a000c44c <b>
a0002ee8:	40a0d093          	srai	ra,ra,0xa
a0002eec:	00d30333          	add	t1,t1,a3
a0002ef0:	06f4d663          	bge	s1,a5,a0002f5c <donut+0x278>
a0002ef4:	02c12783          	lw	a5,44(sp)
a0002ef8:	00950023          	sb	s1,0(a0)
a0002efc:	00c12503          	lw	a0,12(sp)
a0002f00:	02f087b3          	mul	a5,ra,a5
a0002f04:	00412403          	lw	s0,4(sp)
a0002f08:	02012683          	lw	a3,32(sp)
a0002f0c:	40a7d793          	srai	a5,a5,0xa
a0002f10:	00a787b3          	add	a5,a5,a0
a0002f14:	02812503          	lw	a0,40(sp)
a0002f18:	028787b3          	mul	a5,a5,s0
a0002f1c:	02a080b3          	mul	ra,ra,a0
a0002f20:	027683b3          	mul	t2,a3,t2
a0002f24:	40f080b3          	sub	ra,ra,a5
a0002f28:	02412683          	lw	a3,36(sp)
a0002f2c:	407080b3          	sub	ra,ra,t2
a0002f30:	40a0d793          	srai	a5,ra,0xa
a0002f34:	40d787b3          	sub	a5,a5,a3
a0002f38:	4077d793          	srai	a5,a5,0x7
a0002f3c:	fff7c693          	not	a3,a5
a0002f40:	41f6d693          	srai	a3,a3,0x1f
a0002f44:	00d7f7b3          	and	a5,a5,a3
a0002f48:	00006697          	auipc	a3,0x6
a0002f4c:	29068693          	addi	a3,a3,656 # a00091d8 <minute+0x3d98>
a0002f50:	00f687b3          	add	a5,a3,a5
a0002f54:	0007c783          	lbu	a5,0(a5)
a0002f58:	00f30023          	sb	a5,0(t1)
a0002f5c:	02e707b3          	mul	a5,a4,a4
a0002f60:	003006b7          	lui	a3,0x300
a0002f64:	40b685b3          	sub	a1,a3,a1
a0002f68:	40f585b3          	sub	a1,a1,a5
a0002f6c:	40b5d593          	srai	a1,a1,0xb
a0002f70:	02b70733          	mul	a4,a4,a1
a0002f74:	02b603b3          	mul	t2,a2,a1
a0002f78:	40a75793          	srai	a5,a4,0xa
a0002f7c:	00012703          	lw	a4,0(sp)
a0002f80:	40a3d393          	srai	t2,t2,0xa
a0002f84:	e4071ae3          	bnez	a4,a0002dd8 <donut+0xf4>
a0002f88:	03412683          	lw	a3,52(sp)
a0002f8c:	03012603          	lw	a2,48(sp)
a0002f90:	00300537          	lui	a0,0x300
a0002f94:	00369713          	slli	a4,a3,0x3
a0002f98:	00d70733          	add	a4,a4,a3
a0002f9c:	00361793          	slli	a5,a2,0x3
a0002fa0:	40775713          	srai	a4,a4,0x7
a0002fa4:	40e60733          	sub	a4,a2,a4
a0002fa8:	00c787b3          	add	a5,a5,a2
a0002fac:	03812603          	lw	a2,56(sp)
a0002fb0:	4077d793          	srai	a5,a5,0x7
a0002fb4:	00d787b3          	add	a5,a5,a3
a0002fb8:	02e706b3          	mul	a3,a4,a4
a0002fbc:	fff60593          	addi	a1,a2,-1 # 4fffff <_entry_offset+0x4fffff>
a0002fc0:	02b12c23          	sw	a1,56(sp)
a0002fc4:	02f78633          	mul	a2,a5,a5
a0002fc8:	40d506b3          	sub	a3,a0,a3
a0002fcc:	40c686b3          	sub	a3,a3,a2
a0002fd0:	40b6d693          	srai	a3,a3,0xb
a0002fd4:	02d70733          	mul	a4,a4,a3
a0002fd8:	02d787b3          	mul	a5,a5,a3
a0002fdc:	40a75713          	srai	a4,a4,0xa
a0002fe0:	02e12823          	sw	a4,48(sp)
a0002fe4:	40a7d793          	srai	a5,a5,0xa
a0002fe8:	02f12a23          	sw	a5,52(sp)
a0002fec:	d80594e3          	bnez	a1,a0002d74 <donut+0x90>
a0002ff0:	01012583          	lw	a1,16(sp)
a0002ff4:	00812503          	lw	a0,8(sp)
a0002ff8:	01412303          	lw	t1,20(sp)
a0002ffc:	00412283          	lw	t0,4(sp)
a0003000:	00259613          	slli	a2,a1,0x2
a0003004:	00251693          	slli	a3,a0,0x2
a0003008:	00b60633          	add	a2,a2,a1
a000300c:	00231713          	slli	a4,t1,0x2
a0003010:	00a686b3          	add	a3,a3,a0
a0003014:	00229793          	slli	a5,t0,0x2
a0003018:	00670733          	add	a4,a4,t1
a000301c:	005787b3          	add	a5,a5,t0
a0003020:	40765613          	srai	a2,a2,0x7
a0003024:	4086d693          	srai	a3,a3,0x8
a0003028:	40c30633          	sub	a2,t1,a2
a000302c:	40d286b3          	sub	a3,t0,a3
a0003030:	40775713          	srai	a4,a4,0x7
a0003034:	4087d793          	srai	a5,a5,0x8
a0003038:	00b70733          	add	a4,a4,a1
a000303c:	00a787b3          	add	a5,a5,a0
a0003040:	02d685b3          	mul	a1,a3,a3
a0003044:	00300337          	lui	t1,0x300
a0003048:	00000493          	li	s1,0
a000304c:	19000413          	li	s0,400
a0003050:	02c60533          	mul	a0,a2,a2
a0003054:	40b305b3          	sub	a1,t1,a1
a0003058:	02e702b3          	mul	t0,a4,a4
a000305c:	40a30533          	sub	a0,t1,a0
a0003060:	02f78333          	mul	t1,a5,a5
a0003064:	40550533          	sub	a0,a0,t0
a0003068:	40b55513          	srai	a0,a0,0xb
a000306c:	406585b3          	sub	a1,a1,t1
a0003070:	40b5d593          	srai	a1,a1,0xb
a0003074:	02a70733          	mul	a4,a4,a0
a0003078:	02a60633          	mul	a2,a2,a0
a000307c:	40a75713          	srai	a4,a4,0xa
a0003080:	00e12823          	sw	a4,16(sp)
a0003084:	02b686b3          	mul	a3,a3,a1
a0003088:	40a65613          	srai	a2,a2,0xa
a000308c:	00c12a23          	sw	a2,20(sp)
a0003090:	02b787b3          	mul	a5,a5,a1
a0003094:	40a6d713          	srai	a4,a3,0xa
a0003098:	00e12223          	sw	a4,4(sp)
a000309c:	40a7d793          	srai	a5,a5,0xa
a00030a0:	00f12423          	sw	a5,8(sp)
a00030a4:	0000a797          	auipc	a5,0xa
a00030a8:	ac878793          	addi	a5,a5,-1336 # a000cb6c <buf.2>
a00030ac:	04f12623          	sw	a5,76(sp)
a00030b0:	04410593          	addi	a1,sp,68
a00030b4:	00100793          	li	a5,1
a00030b8:	00b00513          	li	a0,11
a00030bc:	04912423          	sw	s1,72(sp)
a00030c0:	04f12a23          	sw	a5,84(sp)
a00030c4:	04012223          	sw	zero,68(sp)
a00030c8:	04812823          	sw	s0,80(sp)
a00030cc:	04010c23          	sb	zero,88(sp)
a00030d0:	39c000ef          	jal	ra,a000346c <ioe_write>
a00030d4:	00148493          	addi	s1,s1,1 # ffb00001 <_stack_pointer+0x5bb00001>
a00030d8:	12c00793          	li	a5,300
a00030dc:	fcf494e3          	bne	s1,a5,a00030a4 <donut+0x3c0>
a00030e0:	00000413          	li	s0,0
a00030e4:	00000493          	li	s1,0
a00030e8:	00000693          	li	a3,0
a00030ec:	05000313          	li	t1,80
a00030f0:	026467b3          	rem	a5,s0,t1
a00030f4:	1a078e63          	beqz	a5,a00032b0 <donut+0x5cc>
a00030f8:	03100793          	li	a5,49
a00030fc:	0a97d063          	bge	a5,s1,a000319c <donut+0x4b8>
a0003100:	00148493          	addi	s1,s1,1
a0003104:	00140413          	addi	s0,s0,1
a0003108:	6e100793          	li	a5,1761
a000310c:	fef412e3          	bne	s0,a5,a00030f0 <donut+0x40c>
a0003110:	00100793          	li	a5,1
a0003114:	00b00513          	li	a0,11
a0003118:	04410593          	addi	a1,sp,68
a000311c:	04f10c23          	sb	a5,88(sp)
a0003120:	04012223          	sw	zero,68(sp)
a0003124:	04012423          	sw	zero,72(sp)
a0003128:	04012623          	sw	zero,76(sp)
a000312c:	04012823          	sw	zero,80(sp)
a0003130:	04012a23          	sw	zero,84(sp)
a0003134:	338000ef          	jal	ra,a000346c <ioe_write>
a0003138:	04012403          	lw	s0,64(sp)
a000313c:	00600513          	li	a0,6
a0003140:	00040593          	mv	a1,s0
a0003144:	30c000ef          	jal	ra,a0003450 <ioe_read>
a0003148:	00042783          	lw	a5,0(s0)
a000314c:	00018737          	lui	a4,0x18
a0003150:	00442683          	lw	a3,4(s0)
a0003154:	6a070713          	addi	a4,a4,1696 # 186a0 <_entry_offset+0x186a0>
a0003158:	00e784b3          	add	s1,a5,a4
a000315c:	00f4b7b3          	sltu	a5,s1,a5
a0003160:	00040593          	mv	a1,s0
a0003164:	00d78433          	add	s0,a5,a3
a0003168:	00048793          	mv	a5,s1
a000316c:	00040493          	mv	s1,s0
a0003170:	00078413          	mv	s0,a5
a0003174:	00600513          	li	a0,6
a0003178:	00b12023          	sw	a1,0(sp)
a000317c:	2d4000ef          	jal	ra,a0003450 <ioe_read>
a0003180:	00012583          	lw	a1,0(sp)
a0003184:	0045a783          	lw	a5,4(a1)
a0003188:	0005a703          	lw	a4,0(a1)
a000318c:	fe97e4e3          	bltu	a5,s1,a0003174 <donut+0x490>
a0003190:	b8f498e3          	bne	s1,a5,a0002d20 <donut+0x3c>
a0003194:	fe8760e3          	bltu	a4,s0,a0003174 <donut+0x490>
a0003198:	b89ff06f          	j	a0002d20 <donut+0x3c>
a000319c:	00009797          	auipc	a5,0x9
a00031a0:	2b078793          	addi	a5,a5,688 # a000c44c <b>
a00031a4:	008787b3          	add	a5,a5,s0
a00031a8:	00006717          	auipc	a4,0x6
a00031ac:	1cd70713          	addi	a4,a4,461 # a0009375 <last_c.1>
a00031b0:	0007c783          	lbu	a5,0(a5)
a00031b4:	00074703          	lbu	a4,0(a4)
a00031b8:	0af70863          	beq	a4,a5,a0003268 <donut+0x584>
a00031bc:	00006717          	auipc	a4,0x6
a00031c0:	1b970713          	addi	a4,a4,441 # a0009375 <last_c.1>
a00031c4:	00f70023          	sb	a5,0(a4)
a00031c8:	02000613          	li	a2,32
a00031cc:	00000713          	li	a4,0
a00031d0:	06c78e63          	beq	a5,a2,a000324c <donut+0x568>
a00031d4:	01900713          	li	a4,25
a00031d8:	02e7d733          	divu	a4,a5,a4
a00031dc:	00500613          	li	a2,5
a00031e0:	00371593          	slli	a1,a4,0x3
a00031e4:	40e585b3          	sub	a1,a1,a4
a00031e8:	00559513          	slli	a0,a1,0x5
a00031ec:	00a585b3          	add	a1,a1,a0
a00031f0:	00b787b3          	add	a5,a5,a1
a00031f4:	0ff7f793          	zext.b	a5,a5
a00031f8:	02c7d5b3          	divu	a1,a5,a2
a00031fc:	00871713          	slli	a4,a4,0x8
a0003200:	00259513          	slli	a0,a1,0x2
a0003204:	00a58533          	add	a0,a1,a0
a0003208:	00859593          	slli	a1,a1,0x8
a000320c:	02c5c5b3          	div	a1,a1,a2
a0003210:	40a787b3          	sub	a5,a5,a0
a0003214:	0ff7f793          	zext.b	a5,a5
a0003218:	00879793          	slli	a5,a5,0x8
a000321c:	00ff0537          	lui	a0,0xff0
a0003220:	02c74733          	div	a4,a4,a2
a0003224:	02c7c7b3          	div	a5,a5,a2
a0003228:	00859613          	slli	a2,a1,0x8
a000322c:	000105b7          	lui	a1,0x10
a0003230:	01071713          	slli	a4,a4,0x10
a0003234:	fff58593          	addi	a1,a1,-1 # ffff <_entry_offset+0xffff>
a0003238:	00a77733          	and	a4,a4,a0
a000323c:	00b67633          	and	a2,a2,a1
a0003240:	00c76733          	or	a4,a4,a2
a0003244:	0ff7f793          	zext.b	a5,a5
a0003248:	00f76733          	or	a4,a4,a5
a000324c:	0000a797          	auipc	a5,0xa
a0003250:	8e078793          	addi	a5,a5,-1824 # a000cb2c <buf.0>
a0003254:	00e7a023          	sw	a4,0(a5)
a0003258:	0000a617          	auipc	a2,0xa
a000325c:	91460613          	addi	a2,a2,-1772 # a000cb6c <buf.2>
a0003260:	00478793          	addi	a5,a5,4
a0003264:	fef618e3          	bne	a2,a5,a0003254 <donut+0x570>
a0003268:	00269713          	slli	a4,a3,0x2
a000326c:	00400793          	li	a5,4
a0003270:	00249613          	slli	a2,s1,0x2
a0003274:	04e12423          	sw	a4,72(sp)
a0003278:	04410593          	addi	a1,sp,68
a000327c:	0000a717          	auipc	a4,0xa
a0003280:	8b070713          	addi	a4,a4,-1872 # a000cb2c <buf.0>
a0003284:	00b00513          	li	a0,11
a0003288:	00d12023          	sw	a3,0(sp)
a000328c:	04c12223          	sw	a2,68(sp)
a0003290:	04e12623          	sw	a4,76(sp)
a0003294:	04f12823          	sw	a5,80(sp)
a0003298:	04f12a23          	sw	a5,84(sp)
a000329c:	04010c23          	sb	zero,88(sp)
a00032a0:	1cc000ef          	jal	ra,a000346c <ioe_write>
a00032a4:	00012683          	lw	a3,0(sp)
a00032a8:	05000313          	li	t1,80
a00032ac:	e55ff06f          	j	a0003100 <donut+0x41c>
a00032b0:	00168693          	addi	a3,a3,1 # 300001 <_entry_offset+0x300001>
a00032b4:	00100493          	li	s1,1
a00032b8:	e4dff06f          	j	a0003104 <donut+0x420>

a00032bc <putch>:
a00032bc:	ff010113          	addi	sp,sp,-16
a00032c0:	00050793          	mv	a5,a0
a00032c4:	00010593          	mv	a1,sp
a00032c8:	00200513          	li	a0,2
a00032cc:	00112623          	sw	ra,12(sp)
a00032d0:	00f10023          	sb	a5,0(sp)
a00032d4:	198000ef          	jal	ra,a000346c <ioe_write>
a00032d8:	00c12083          	lw	ra,12(sp)
a00032dc:	01010113          	addi	sp,sp,16
a00032e0:	00008067          	ret

a00032e4 <halt>:
a00032e4:	00100073          	ebreak
a00032e8:	0000006f          	j	a00032e8 <halt+0x4>

a00032ec <_trm_init>:
a00032ec:	ff410113          	addi	sp,sp,-12
a00032f0:	00112423          	sw	ra,8(sp)
a00032f4:	100000ef          	jal	ra,a00033f4 <ioe_init>
a00032f8:	00006517          	auipc	a0,0x6
a00032fc:	28850513          	addi	a0,a0,648 # a0009580 <buf.0>
a0003300:	0000a617          	auipc	a2,0xa
a0003304:	7b860613          	addi	a2,a2,1976 # a000dab8 <_bss_end>
a0003308:	40a60633          	sub	a2,a2,a0
a000330c:	00000593          	li	a1,0
a0003310:	5e0000ef          	jal	ra,a00038f0 <memset>
a0003314:	f12027f3          	.4byte	0xf12027f3
a0003318:	04078263          	beqz	a5,a000335c <_trm_init+0x70>
a000331c:	00000693          	li	a3,0
a0003320:	00000613          	li	a2,0
a0003324:	00a00593          	li	a1,10
a0003328:	02b7e733          	rem	a4,a5,a1
a000332c:	02b7c7b3          	div	a5,a5,a1
a0003330:	00d71733          	sll	a4,a4,a3
a0003334:	00e60633          	add	a2,a2,a4
a0003338:	00468693          	addi	a3,a3,4
a000333c:	fe0796e3          	bnez	a5,a0003328 <_trm_init+0x3c>
a0003340:	100027b7          	lui	a5,0x10002
a0003344:	00c7a423          	sw	a2,8(a5) # 10002008 <_essbl+0x1001f58>
a0003348:	00006517          	auipc	a0,0x6
a000334c:	00c50513          	addi	a0,a0,12 # a0009354 <mainargs>
a0003350:	cb1fc0ef          	jal	ra,a0000000 <main>
a0003354:	00100073          	ebreak
a0003358:	0000006f          	j	a0003358 <_trm_init+0x6c>
a000335c:	00000613          	li	a2,0
a0003360:	fe1ff06f          	j	a0003340 <_trm_init+0x54>

a0003364 <__am_timer_config>:
a0003364:	00100793          	li	a5,1
a0003368:	00f50023          	sb	a5,0(a0)
a000336c:	00f500a3          	sb	a5,1(a0)
a0003370:	00008067          	ret

a0003374 <__am_input_config>:
a0003374:	00100793          	li	a5,1
a0003378:	00f50023          	sb	a5,0(a0)
a000337c:	00008067          	ret

a0003380 <fail>:
a0003380:	ff410113          	addi	sp,sp,-12
a0003384:	00812223          	sw	s0,4(sp)
a0003388:	00112423          	sw	ra,8(sp)
a000338c:	00006417          	auipc	s0,0x6
a0003390:	e5c40413          	addi	s0,s0,-420 # a00091e8 <minute+0x3da8>
a0003394:	04100513          	li	a0,65
a0003398:	00140413          	addi	s0,s0,1
a000339c:	f21ff0ef          	jal	ra,a00032bc <putch>
a00033a0:	00044503          	lbu	a0,0(s0)
a00033a4:	fe051ae3          	bnez	a0,a0003398 <fail+0x18>
a00033a8:	00006417          	auipc	s0,0x6
a00033ac:	e4c40413          	addi	s0,s0,-436 # a00091f4 <minute+0x3db4>
a00033b0:	06100513          	li	a0,97
a00033b4:	00140413          	addi	s0,s0,1
a00033b8:	f05ff0ef          	jal	ra,a00032bc <putch>
a00033bc:	00044503          	lbu	a0,0(s0)
a00033c0:	fe051ae3          	bnez	a0,a00033b4 <fail+0x34>
a00033c4:	00006417          	auipc	s0,0x6
a00033c8:	e4c40413          	addi	s0,s0,-436 # a0009210 <minute+0x3dd0>
a00033cc:	02000513          	li	a0,32
a00033d0:	00140413          	addi	s0,s0,1
a00033d4:	ee9ff0ef          	jal	ra,a00032bc <putch>
a00033d8:	00044503          	lbu	a0,0(s0)
a00033dc:	fe051ae3          	bnez	a0,a00033d0 <fail+0x50>
a00033e0:	00100513          	li	a0,1
a00033e4:	f01ff0ef          	jal	ra,a00032e4 <halt>

a00033e8 <__am_uart_config>:
a00033e8:	00100793          	li	a5,1
a00033ec:	00f50023          	sb	a5,0(a0)
a00033f0:	00008067          	ret

a00033f4 <ioe_init>:
a00033f4:	ff410113          	addi	sp,sp,-12
a00033f8:	00112423          	sw	ra,8(sp)
a00033fc:	00006797          	auipc	a5,0x6
a0003400:	f8478793          	addi	a5,a5,-124 # a0009380 <lut>
a0003404:	00006697          	auipc	a3,0x6
a0003408:	17c68693          	addi	a3,a3,380 # a0009580 <buf.0>
a000340c:	00000617          	auipc	a2,0x0
a0003410:	f7460613          	addi	a2,a2,-140 # a0003380 <fail>
a0003414:	00c0006f          	j	a0003420 <ioe_init+0x2c>
a0003418:	00478793          	addi	a5,a5,4
a000341c:	00d78c63          	beq	a5,a3,a0003434 <ioe_init+0x40>
a0003420:	0007a703          	lw	a4,0(a5)
a0003424:	fe071ae3          	bnez	a4,a0003418 <ioe_init+0x24>
a0003428:	00c7a023          	sw	a2,0(a5)
a000342c:	00478793          	addi	a5,a5,4
a0003430:	fed798e3          	bne	a5,a3,a0003420 <ioe_init+0x2c>
a0003434:	054000ef          	jal	ra,a0003488 <__am_timer_init>
a0003438:	180000ef          	jal	ra,a00035b8 <__am_uart_init>
a000343c:	268000ef          	jal	ra,a00036a4 <__am_input_init>
a0003440:	00812083          	lw	ra,8(sp)
a0003444:	00100513          	li	a0,1
a0003448:	00c10113          	addi	sp,sp,12
a000344c:	00008067          	ret

a0003450 <ioe_read>:
a0003450:	00251513          	slli	a0,a0,0x2
a0003454:	00006797          	auipc	a5,0x6
a0003458:	f2c78793          	addi	a5,a5,-212 # a0009380 <lut>
a000345c:	00a787b3          	add	a5,a5,a0
a0003460:	0007a783          	lw	a5,0(a5)
a0003464:	00058513          	mv	a0,a1
a0003468:	00078067          	jr	a5

a000346c <ioe_write>:
a000346c:	00251513          	slli	a0,a0,0x2
a0003470:	00006797          	auipc	a5,0x6
a0003474:	f1078793          	addi	a5,a5,-240 # a0009380 <lut>
a0003478:	00a787b3          	add	a5,a5,a0
a000347c:	0007a783          	lw	a5,0(a5)
a0003480:	00058513          	mv	a0,a1
a0003484:	00078067          	jr	a5

a0003488 <__am_timer_init>:
a0003488:	00008067          	ret

a000348c <__am_timer_uptime>:
a000348c:	020007b7          	lui	a5,0x2000
a0003490:	0047a703          	lw	a4,4(a5) # 2000004 <_entry_offset+0x2000004>
a0003494:	0007a783          	lw	a5,0(a5)
a0003498:	00e7e7b3          	or	a5,a5,a4
a000349c:	0017d713          	srli	a4,a5,0x1
a00034a0:	00f707b3          	add	a5,a4,a5
a00034a4:	00e7b733          	sltu	a4,a5,a4
a00034a8:	00f52023          	sw	a5,0(a0)
a00034ac:	00e52223          	sw	a4,4(a0)
a00034b0:	00008067          	ret

a00034b4 <__am_timer_rtc>:
a00034b4:	020007b7          	lui	a5,0x2000
a00034b8:	0087a703          	lw	a4,8(a5) # 2000008 <_entry_offset+0x2000008>
a00034bc:	00c7a783          	lw	a5,12(a5)
a00034c0:	00875613          	srli	a2,a4,0x8
a00034c4:	0087d693          	srli	a3,a5,0x8
a00034c8:	0ff77313          	zext.b	t1,a4
a00034cc:	0ff7f593          	zext.b	a1,a5
a00034d0:	0ff67613          	zext.b	a2,a2
a00034d4:	01075713          	srli	a4,a4,0x10
a00034d8:	0ff6f693          	zext.b	a3,a3
a00034dc:	0107d793          	srli	a5,a5,0x10
a00034e0:	00652a23          	sw	t1,20(a0)
a00034e4:	00c52823          	sw	a2,16(a0)
a00034e8:	00e52623          	sw	a4,12(a0)
a00034ec:	00b52423          	sw	a1,8(a0)
a00034f0:	00d52223          	sw	a3,4(a0)
a00034f4:	00f52023          	sw	a5,0(a0)
a00034f8:	00008067          	ret

a00034fc <__am_gpu_config>:
a00034fc:	00100793          	li	a5,1
a0003500:	00f52023          	sw	a5,0(a0)
a0003504:	28000793          	li	a5,640
a0003508:	00f52223          	sw	a5,4(a0)
a000350c:	1e000793          	li	a5,480
a0003510:	00f52423          	sw	a5,8(a0)
a0003514:	0004b7b7          	lui	a5,0x4b
a0003518:	00f52623          	sw	a5,12(a0)
a000351c:	00008067          	ret

a0003520 <__am_gpu_fbdraw>:
a0003520:	00452783          	lw	a5,4(a0)
a0003524:	00052703          	lw	a4,0(a0)
a0003528:	01052383          	lw	t2,16(a0)
a000352c:	00279313          	slli	t1,a5,0x2
a0003530:	00f30333          	add	t1,t1,a5
a0003534:	00731313          	slli	t1,t1,0x7
a0003538:	00e30333          	add	t1,t1,a4
a000353c:	084007b7          	lui	a5,0x8400
a0003540:	00f30333          	add	t1,t1,a5
a0003544:	00852583          	lw	a1,8(a0)
a0003548:	00231313          	slli	t1,t1,0x2
a000354c:	04705e63          	blez	t2,a00035a8 <__am_gpu_fbdraw+0x88>
a0003550:	00c52783          	lw	a5,12(a0)
a0003554:	000012b7          	lui	t0,0x1
a0003558:	00000613          	li	a2,0
a000355c:	a0028293          	addi	t0,t0,-1536 # a00 <_entry_offset+0xa00>
a0003560:	00030693          	mv	a3,t1
a0003564:	00000713          	li	a4,0
a0003568:	02f05863          	blez	a5,a0003598 <__am_gpu_fbdraw+0x78>
a000356c:	02c787b3          	mul	a5,a5,a2
a0003570:	00468693          	addi	a3,a3,4
a0003574:	00e787b3          	add	a5,a5,a4
a0003578:	00279793          	slli	a5,a5,0x2
a000357c:	00f587b3          	add	a5,a1,a5
a0003580:	0007a783          	lw	a5,0(a5) # 8400000 <_entry_offset+0x8400000>
a0003584:	00170713          	addi	a4,a4,1
a0003588:	fef6ae23          	sw	a5,-4(a3)
a000358c:	00c52783          	lw	a5,12(a0)
a0003590:	fcf74ee3          	blt	a4,a5,a000356c <__am_gpu_fbdraw+0x4c>
a0003594:	01052383          	lw	t2,16(a0)
a0003598:	00160613          	addi	a2,a2,1
a000359c:	00530333          	add	t1,t1,t0
a00035a0:	fc7640e3          	blt	a2,t2,a0003560 <__am_gpu_fbdraw+0x40>
a00035a4:	00008067          	ret
a00035a8:	00008067          	ret

a00035ac <__am_gpu_status>:
a00035ac:	00100793          	li	a5,1
a00035b0:	00f50023          	sb	a5,0(a0)
a00035b4:	00008067          	ret

a00035b8 <__am_uart_init>:
a00035b8:	100007b7          	lui	a5,0x10000
a00035bc:	f8300713          	li	a4,-125
a00035c0:	00e781a3          	sb	a4,3(a5) # 10000003 <_essbl+0xffff53>
a00035c4:	00100713          	li	a4,1
a00035c8:	00e78023          	sb	a4,0(a5)
a00035cc:	00300713          	li	a4,3
a00035d0:	00e781a3          	sb	a4,3(a5)
a00035d4:	00008067          	ret

a00035d8 <__am_uart_tx>:
a00035d8:	10000737          	lui	a4,0x10000
a00035dc:	00574783          	lbu	a5,5(a4) # 10000005 <_essbl+0xffff55>
a00035e0:	0607f793          	andi	a5,a5,96
a00035e4:	fe078ce3          	beqz	a5,a00035dc <__am_uart_tx+0x4>
a00035e8:	00054783          	lbu	a5,0(a0)
a00035ec:	00f70023          	sb	a5,0(a4)
a00035f0:	00008067          	ret

a00035f4 <__am_uart_rx>:
a00035f4:	100006b7          	lui	a3,0x10000
a00035f8:	0056c783          	lbu	a5,5(a3) # 10000005 <_essbl+0xffff55>
a00035fc:	0ff00713          	li	a4,255
a0003600:	0017f793          	andi	a5,a5,1
a0003604:	00078663          	beqz	a5,a0003610 <__am_uart_rx+0x1c>
a0003608:	0006c703          	lbu	a4,0(a3)
a000360c:	0ff77713          	zext.b	a4,a4
a0003610:	00e50023          	sb	a4,0(a0)
a0003614:	00008067          	ret

a0003618 <__am_input_keybrd>:
a0003618:	100117b7          	lui	a5,0x10011
a000361c:	0007c703          	lbu	a4,0(a5) # 10011000 <_essbl+0x1010f50>
a0003620:	0ff77793          	zext.b	a5,a4
a0003624:	06070863          	beqz	a4,a0003694 <__am_input_keybrd+0x7c>
a0003628:	0e000713          	li	a4,224
a000362c:	0000a697          	auipc	a3,0xa
a0003630:	26068693          	addi	a3,a3,608 # a000d88c <keymap>
a0003634:	02e78e63          	beq	a5,a4,a0003670 <__am_input_keybrd+0x58>
a0003638:	0f000713          	li	a4,240
a000363c:	00e78e63          	beq	a5,a4,a0003658 <__am_input_keybrd+0x40>
a0003640:	00100713          	li	a4,1
a0003644:	00e50023          	sb	a4,0(a0)
a0003648:	00f686b3          	add	a3,a3,a5
a000364c:	0006c783          	lbu	a5,0(a3)
a0003650:	00f52223          	sw	a5,4(a0)
a0003654:	00008067          	ret
a0003658:	00050023          	sb	zero,0(a0)
a000365c:	10011637          	lui	a2,0x10011
a0003660:	00064703          	lbu	a4,0(a2) # 10011000 <_essbl+0x1010f50>
a0003664:	0ff77793          	zext.b	a5,a4
a0003668:	fe070ce3          	beqz	a4,a0003660 <__am_input_keybrd+0x48>
a000366c:	fddff06f          	j	a0003648 <__am_input_keybrd+0x30>
a0003670:	100116b7          	lui	a3,0x10011
a0003674:	0006c703          	lbu	a4,0(a3) # 10011000 <_essbl+0x1010f50>
a0003678:	0ff77793          	zext.b	a5,a4
a000367c:	fe070ce3          	beqz	a4,a0003674 <__am_input_keybrd+0x5c>
a0003680:	0f000713          	li	a4,240
a0003684:	0000a697          	auipc	a3,0xa
a0003688:	30868693          	addi	a3,a3,776 # a000d98c <keymap_ext>
a000368c:	fae79ae3          	bne	a5,a4,a0003640 <__am_input_keybrd+0x28>
a0003690:	fc9ff06f          	j	a0003658 <__am_input_keybrd+0x40>
a0003694:	00000793          	li	a5,0
a0003698:	00050023          	sb	zero,0(a0)
a000369c:	00f52223          	sw	a5,4(a0)
a00036a0:	00008067          	ret

a00036a4 <__am_input_init>:
a00036a4:	ff810113          	addi	sp,sp,-8
a00036a8:	0000a797          	auipc	a5,0xa
a00036ac:	1e478793          	addi	a5,a5,484 # a000d88c <keymap>
a00036b0:	00812223          	sw	s0,4(sp)
a00036b4:	00912023          	sw	s1,0(sp)
a00036b8:	00100313          	li	t1,1
a00036bc:	06678b23          	sb	t1,118(a5)
a00036c0:	00800313          	li	t1,8
a00036c4:	086781a3          	sb	t1,131(a5)
a00036c8:	00a00313          	li	t1,10
a00036cc:	006780a3          	sb	t1,1(a5)
a00036d0:	00c00313          	li	t1,12
a00036d4:	06678c23          	sb	t1,120(a5)
a00036d8:	00600313          	li	t1,6
a00036dc:	006781a3          	sb	t1,3(a5)
a00036e0:	0d030337          	lui	t1,0xd030
a00036e4:	20430313          	addi	t1,t1,516 # d030204 <_entry_offset+0xd030204>
a00036e8:	0067a223          	sw	t1,4(a5)
a00036ec:	00f00313          	li	t1,15
a00036f0:	00678b23          	sb	t1,22(a5)
a00036f4:	01b00313          	li	t1,27
a00036f8:	06678323          	sb	t1,102(a5)
a00036fc:	00b00313          	li	t1,11
a0003700:	006784a3          	sb	t1,9(a5)
a0003704:	70900313          	li	t1,1801
a0003708:	00679523          	sh	t1,10(a5)
a000370c:	00e00313          	li	t1,14
a0003710:	00678723          	sb	t1,14(a5)
a0003714:	01d00313          	li	t1,29
a0003718:	00678aa3          	sb	t1,21(a5)
a000371c:	02900313          	li	t1,41
a0003720:	04678ea3          	sb	t1,93(a5)
a0003724:	02a00313          	li	t1,42
a0003728:	04678c23          	sb	t1,88(a5)
a000372c:	03300313          	li	t1,51
a0003730:	00003637          	lui	a2,0x3
a0003734:	046785a3          	sb	t1,75(a5)
a0003738:	01900313          	li	t1,25
a000373c:	000026b7          	lui	a3,0x2
a0003740:	83660293          	addi	t0,a2,-1994 # 2836 <_entry_offset+0x2836>
a0003744:	04678723          	sb	t1,78(a5)
a0003748:	03500313          	li	t1,53
a000374c:	63468393          	addi	t2,a3,1588 # 2634 <_entry_offset+0x2634>
a0003750:	04678923          	sb	t1,82(a5)
a0003754:	04579d23          	sh	t0,90(a5)
a0003758:	03700313          	li	t1,55
a000375c:	000032b7          	lui	t0,0x3
a0003760:	04779623          	sh	t2,76(a5)
a0003764:	00678923          	sb	t1,18(a5)
a0003768:	000023b7          	lui	t2,0x2
a000376c:	c3828313          	addi	t1,t0,-968 # 2c38 <_entry_offset+0x2c38>
a0003770:	00679d23          	sh	t1,26(a5)
a0003774:	e2b38313          	addi	t1,t2,-469 # 1e2b <_entry_offset+0x1e2b>
a0003778:	00679e23          	sh	t1,28(a5)
a000377c:	01000313          	li	t1,16
a0003780:	00678f23          	sb	t1,30(a5)
a0003784:	03a00313          	li	t1,58
a0003788:	026780a3          	sb	t1,33(a5)
a000378c:	d3928313          	addi	t1,t0,-711
a0003790:	02679123          	sh	t1,34(a5)
a0003794:	00001337          	lui	t1,0x1
a0003798:	21f30313          	addi	t1,t1,543 # 121f <_entry_offset+0x121f>
a000379c:	02679223          	sh	t1,36(a5)
a00037a0:	01100313          	li	t1,17
a00037a4:	c0568493          	addi	s1,a3,-1019
a00037a8:	a2768413          	addi	s0,a3,-1497
a00037ac:	02678323          	sb	t1,38(a5)
a00037b0:	e3b28313          	addi	t1,t0,-453
a00037b4:	00979623          	sh	s1,12(a5)
a00037b8:	04879a23          	sh	s0,84(a5)
a00037bc:	02679523          	sh	t1,42(a5)
a00037c0:	43268293          	addi	t0,a3,1074
a00037c4:	02138313          	addi	t1,t2,33
a00037c8:	22f68393          	addi	t2,a3,559
a00037cc:	82568693          	addi	a3,a3,-2011
a00037d0:	02679623          	sh	t1,44(a5)
a00037d4:	04d79223          	sh	a3,68(a5)
a00037d8:	01700693          	li	a3,23
a00037dc:	04d78323          	sb	a3,70(a5)
a00037e0:	04000693          	li	a3,64
a00037e4:	04d784a3          	sb	a3,73(a5)
a00037e8:	04100693          	li	a3,65
a00037ec:	04d78523          	sb	a3,74(a5)
a00037f0:	04200693          	li	a3,66
a00037f4:	04d78ca3          	sb	a3,89(a5)
a00037f8:	03c60413          	addi	s0,a2,60
a00037fc:	04300693          	li	a3,67
a0003800:	13e60613          	addi	a2,a2,318
a0003804:	02c79d23          	sh	a2,58(a5)
a0003808:	00d78a23          	sb	a3,20(a5)
a000380c:	01600613          	li	a2,22
a0003810:	04500693          	li	a3,69
a0003814:	00001537          	lui	a0,0x1
a0003818:	02779a23          	sh	t2,52(a5)
a000381c:	02c78f23          	sb	a2,62(a5)
a0003820:	00d788a3          	sb	a3,17(a5)
a0003824:	01300313          	li	t1,19
a0003828:	03d00493          	li	s1,61
a000382c:	52350513          	addi	a0,a0,1315 # 1523 <_entry_offset+0x1523>
a0003830:	01400393          	li	t2,20
a0003834:	03f00613          	li	a2,63
a0003838:	04600693          	li	a3,70
a000383c:	0000a717          	auipc	a4,0xa
a0003840:	15070713          	addi	a4,a4,336 # a000d98c <keymap_ext>
a0003844:	02678723          	sb	t1,46(a5)
a0003848:	029788a3          	sb	s1,49(a5)
a000384c:	02879923          	sh	s0,50(a5)
a0003850:	02778b23          	sb	t2,54(a5)
a0003854:	02a79e23          	sh	a0,60(a5)
a0003858:	04c780a3          	sb	a2,65(a5)
a000385c:	04579123          	sh	t0,66(a5)
a0003860:	02d784a3          	sb	a3,41(a5)
a0003864:	04700793          	li	a5,71
a0003868:	00f708a3          	sb	a5,17(a4)
a000386c:	04800793          	li	a5,72
a0003870:	00f70a23          	sb	a5,20(a4)
a0003874:	04b00793          	li	a5,75
a0003878:	06f705a3          	sb	a5,107(a4)
a000387c:	04a00793          	li	a5,74
a0003880:	06f70923          	sb	a5,114(a4)
a0003884:	04f00793          	li	a5,79
a0003888:	06f70623          	sb	a5,108(a4)
a000388c:	05000793          	li	a5,80
a0003890:	06f704a3          	sb	a5,105(a4)
a0003894:	000055b7          	lui	a1,0x5
a0003898:	05100793          	li	a5,81
a000389c:	06f70ea3          	sb	a5,125(a4)
a00038a0:	94c58313          	addi	t1,a1,-1716 # 494c <_entry_offset+0x494c>
a00038a4:	05200793          	li	a5,82
a00038a8:	e4d58593          	addi	a1,a1,-435
a00038ac:	06671a23          	sh	t1,116(a4)
a00038b0:	06b71823          	sh	a1,112(a4)
a00038b4:	06f70d23          	sb	a5,122(a4)
a00038b8:	00412403          	lw	s0,4(sp)
a00038bc:	00012483          	lw	s1,0(sp)
a00038c0:	00810113          	addi	sp,sp,8
a00038c4:	00008067          	ret

a00038c8 <strlen>:
a00038c8:	00054783          	lbu	a5,0(a0)
a00038cc:	00050713          	mv	a4,a0
a00038d0:	00000513          	li	a0,0
a00038d4:	00078c63          	beqz	a5,a00038ec <strlen+0x24>
a00038d8:	00150513          	addi	a0,a0,1
a00038dc:	00a707b3          	add	a5,a4,a0
a00038e0:	0007c783          	lbu	a5,0(a5)
a00038e4:	fe079ae3          	bnez	a5,a00038d8 <strlen+0x10>
a00038e8:	00008067          	ret
a00038ec:	00008067          	ret

a00038f0 <memset>:
a00038f0:	0ff5f593          	zext.b	a1,a1
a00038f4:	00c50733          	add	a4,a0,a2
a00038f8:	00050793          	mv	a5,a0
a00038fc:	00060863          	beqz	a2,a000390c <memset+0x1c>
a0003900:	00178793          	addi	a5,a5,1
a0003904:	feb78fa3          	sb	a1,-1(a5)
a0003908:	fee79ce3          	bne	a5,a4,a0003900 <memset+0x10>
a000390c:	00008067          	ret

a0003910 <memmove>:
a0003910:	ffc10113          	addi	sp,sp,-4
a0003914:	00360793          	addi	a5,a2,3
a0003918:	00812023          	sw	s0,0(sp)
a000391c:	ffc7f793          	andi	a5,a5,-4
a0003920:	00410413          	addi	s0,sp,4
a0003924:	00c58333          	add	t1,a1,a2
a0003928:	40f10133          	sub	sp,sp,a5
a000392c:	00010793          	mv	a5,sp
a0003930:	00658e63          	beq	a1,t1,a000394c <memmove+0x3c>
a0003934:	00010713          	mv	a4,sp
a0003938:	0005c683          	lbu	a3,0(a1)
a000393c:	00158593          	addi	a1,a1,1
a0003940:	00170713          	addi	a4,a4,1
a0003944:	fed70fa3          	sb	a3,-1(a4)
a0003948:	feb318e3          	bne	t1,a1,a0003938 <memmove+0x28>
a000394c:	00060c63          	beqz	a2,a0003964 <memmove+0x54>
a0003950:	0007c703          	lbu	a4,0(a5)
a0003954:	00150513          	addi	a0,a0,1
a0003958:	00178793          	addi	a5,a5,1
a000395c:	fee50fa3          	sb	a4,-1(a0)
a0003960:	ff1ff06f          	j	a0003950 <memmove+0x40>
a0003964:	ffc40113          	addi	sp,s0,-4
a0003968:	00012403          	lw	s0,0(sp)
a000396c:	00410113          	addi	sp,sp,4
a0003970:	00008067          	ret

a0003974 <klib_itoa.part.0>:
a0003974:	fbc10113          	addi	sp,sp,-68
a0003978:	02812e23          	sw	s0,60(sp)
a000397c:	04112023          	sw	ra,64(sp)
a0003980:	02912c23          	sw	s1,56(sp)
a0003984:	00d12623          	sw	a3,12(sp)
a0003988:	00e12823          	sw	a4,16(sp)
a000398c:	00f12a23          	sw	a5,20(sp)
a0003990:	00058313          	mv	t1,a1
a0003994:	00050293          	mv	t0,a0
a0003998:	00060413          	mv	s0,a2
a000399c:	1a05c063          	bltz	a1,a0003b3c <klib_itoa.part.0+0x1c8>
a00039a0:	00012823          	sw	zero,16(sp)
a00039a4:	41f45493          	srai	s1,s0,0x1f
a00039a8:	00000793          	li	a5,0
a00039ac:	00040613          	mv	a2,s0
a00039b0:	00048693          	mv	a3,s1
a00039b4:	00028513          	mv	a0,t0
a00039b8:	00030593          	mv	a1,t1
a00039bc:	00f12423          	sw	a5,8(sp)
a00039c0:	00512223          	sw	t0,4(sp)
a00039c4:	00612023          	sw	t1,0(sp)
a00039c8:	205000ef          	jal	ra,a00043cc <__moddi3>
a00039cc:	00012303          	lw	t1,0(sp)
a00039d0:	00412283          	lw	t0,4(sp)
a00039d4:	00050713          	mv	a4,a0
a00039d8:	00040613          	mv	a2,s0
a00039dc:	00048693          	mv	a3,s1
a00039e0:	00028513          	mv	a0,t0
a00039e4:	00030593          	mv	a1,t1
a00039e8:	00e12023          	sw	a4,0(sp)
a00039ec:	169000ef          	jal	ra,a0004354 <__divdi3>
a00039f0:	00012703          	lw	a4,0(sp)
a00039f4:	00050293          	mv	t0,a0
a00039f8:	00900693          	li	a3,9
a00039fc:	0ff77513          	zext.b	a0,a4
a0003a00:	00812783          	lw	a5,8(sp)
a0003a04:	03050613          	addi	a2,a0,48
a0003a08:	00058313          	mv	t1,a1
a0003a0c:	10e6d863          	bge	a3,a4,a0003b1c <klib_itoa.part.0+0x1a8>
a0003a10:	00c12703          	lw	a4,12(sp)
a0003a14:	03750613          	addi	a2,a0,55
a0003a18:	05750513          	addi	a0,a0,87
a0003a1c:	10071063          	bnez	a4,a0003b1c <klib_itoa.part.0+0x1a8>
a0003a20:	0ff57613          	zext.b	a2,a0
a0003a24:	00178713          	addi	a4,a5,1
a0003a28:	01870693          	addi	a3,a4,24
a0003a2c:	002685b3          	add	a1,a3,sp
a0003a30:	fec58fa3          	sb	a2,-1(a1)
a0003a34:	00070613          	mv	a2,a4
a0003a38:	00605663          	blez	t1,a0003a44 <klib_itoa.part.0+0xd0>
a0003a3c:	00070793          	mv	a5,a4
a0003a40:	f6dff06f          	j	a00039ac <klib_itoa.part.0+0x38>
a0003a44:	00031463          	bnez	t1,a0003a4c <klib_itoa.part.0+0xd8>
a0003a48:	fe029ae3          	bnez	t0,a0003a3c <klib_itoa.part.0+0xc8>
a0003a4c:	01012683          	lw	a3,16(sp)
a0003a50:	02068463          	beqz	a3,a0003a78 <klib_itoa.part.0+0x104>
a0003a54:	04412683          	lw	a3,68(sp)
a0003a58:	10069063          	bnez	a3,a0003b58 <klib_itoa.part.0+0x1e4>
a0003a5c:	02070693          	addi	a3,a4,32
a0003a60:	01810613          	addi	a2,sp,24
a0003a64:	00c686b3          	add	a3,a3,a2
a0003a68:	02d00613          	li	a2,45
a0003a6c:	fec68023          	sb	a2,-32(a3)
a0003a70:	00170713          	addi	a4,a4,1
a0003a74:	00278613          	addi	a2,a5,2
a0003a78:	01760793          	addi	a5,a2,23
a0003a7c:	002786b3          	add	a3,a5,sp
a0003a80:	04412783          	lw	a5,68(sp)
a0003a84:	0ef65263          	bge	a2,a5,a0003b68 <klib_itoa.part.0+0x1f4>
a0003a88:	01412783          	lw	a5,20(sp)
a0003a8c:	02000313          	li	t1,32
a0003a90:	0a079263          	bnez	a5,a0003b34 <klib_itoa.part.0+0x1c0>
a0003a94:	04412583          	lw	a1,68(sp)
a0003a98:	01012503          	lw	a0,16(sp)
a0003a9c:	04812403          	lw	s0,72(sp)
a0003aa0:	00060793          	mv	a5,a2
a0003aa4:	fff58293          	addi	t0,a1,-1
a0003aa8:	00058393          	mv	t2,a1
a0003aac:	40c785b3          	sub	a1,a5,a2
a0003ab0:	00b405b3          	add	a1,s0,a1
a0003ab4:	00030493          	mv	s1,t1
a0003ab8:	00050863          	beqz	a0,a0003ac8 <klib_itoa.part.0+0x154>
a0003abc:	02d00493          	li	s1,45
a0003ac0:	00f28463          	beq	t0,a5,a0003ac8 <klib_itoa.part.0+0x154>
a0003ac4:	00030493          	mv	s1,t1
a0003ac8:	00958023          	sb	s1,0(a1)
a0003acc:	00178793          	addi	a5,a5,1
a0003ad0:	fc77cee3          	blt	a5,t2,a0003aac <klib_itoa.part.0+0x138>
a0003ad4:	04412783          	lw	a5,68(sp)
a0003ad8:	00100513          	li	a0,1
a0003adc:	04f64463          	blt	a2,a5,a0003b24 <klib_itoa.part.0+0x1b0>
a0003ae0:	04812783          	lw	a5,72(sp)
a0003ae4:	00a78533          	add	a0,a5,a0
a0003ae8:	00e50733          	add	a4,a0,a4
a0003aec:	0006c783          	lbu	a5,0(a3)
a0003af0:	00150513          	addi	a0,a0,1
a0003af4:	fff68693          	addi	a3,a3,-1
a0003af8:	fef50fa3          	sb	a5,-1(a0)
a0003afc:	fee518e3          	bne	a0,a4,a0003aec <klib_itoa.part.0+0x178>
a0003b00:	04812783          	lw	a5,72(sp)
a0003b04:	04012083          	lw	ra,64(sp)
a0003b08:	03c12403          	lw	s0,60(sp)
a0003b0c:	03812483          	lw	s1,56(sp)
a0003b10:	40f50533          	sub	a0,a0,a5
a0003b14:	04410113          	addi	sp,sp,68
a0003b18:	00008067          	ret
a0003b1c:	0ff67613          	zext.b	a2,a2
a0003b20:	f05ff06f          	j	a0003a24 <klib_itoa.part.0+0xb0>
a0003b24:	40c78533          	sub	a0,a5,a2
a0003b28:	04812783          	lw	a5,72(sp)
a0003b2c:	00a78533          	add	a0,a5,a0
a0003b30:	fb9ff06f          	j	a0003ae8 <klib_itoa.part.0+0x174>
a0003b34:	03000313          	li	t1,48
a0003b38:	f5dff06f          	j	a0003a94 <klib_itoa.part.0+0x120>
a0003b3c:	00100793          	li	a5,1
a0003b40:	e6f710e3          	bne	a4,a5,a00039a0 <klib_itoa.part.0+0x2c>
a0003b44:	00a037b3          	snez	a5,a0
a0003b48:	40b00333          	neg	t1,a1
a0003b4c:	40f30333          	sub	t1,t1,a5
a0003b50:	40a002b3          	neg	t0,a0
a0003b54:	e51ff06f          	j	a00039a4 <klib_itoa.part.0+0x30>
a0003b58:	f0d752e3          	bge	a4,a3,a0003a5c <klib_itoa.part.0+0xe8>
a0003b5c:	01878793          	addi	a5,a5,24
a0003b60:	002786b3          	add	a3,a5,sp
a0003b64:	f25ff06f          	j	a0003a88 <klib_itoa.part.0+0x114>
a0003b68:	04812503          	lw	a0,72(sp)
a0003b6c:	f7dff06f          	j	a0003ae8 <klib_itoa.part.0+0x174>

a0003b70 <vsnprintf>:
a0003b70:	2e058263          	beqz	a1,a0003e54 <vsnprintf+0x2e4>
a0003b74:	fbc10113          	addi	sp,sp,-68
a0003b78:	02812e23          	sw	s0,60(sp)
a0003b7c:	04112023          	sw	ra,64(sp)
a0003b80:	02912c23          	sw	s1,56(sp)
a0003b84:	00060313          	mv	t1,a2
a0003b88:	00064603          	lbu	a2,0(a2)
a0003b8c:	00050413          	mv	s0,a0
a0003b90:	2e060463          	beqz	a2,a0003e78 <vsnprintf+0x308>
a0003b94:	00100793          	li	a5,1
a0003b98:	00058393          	mv	t2,a1
a0003b9c:	2cf58e63          	beq	a1,a5,a0003e78 <vsnprintf+0x308>
a0003ba0:	02500793          	li	a5,37
a0003ba4:	00068493          	mv	s1,a3
a0003ba8:	00100293          	li	t0,1
a0003bac:	02f60663          	beq	a2,a5,a0003bd8 <vsnprintf+0x68>
a0003bb0:	00130313          	addi	t1,t1,1
a0003bb4:	00140793          	addi	a5,s0,1
a0003bb8:	00128293          	addi	t0,t0,1
a0003bbc:	00c40023          	sb	a2,0(s0)
a0003bc0:	00034603          	lbu	a2,0(t1)
a0003bc4:	10060e63          	beqz	a2,a0003ce0 <vsnprintf+0x170>
a0003bc8:	1072fc63          	bgeu	t0,t2,a0003ce0 <vsnprintf+0x170>
a0003bcc:	00078413          	mv	s0,a5
a0003bd0:	02500793          	li	a5,37
a0003bd4:	fcf61ee3          	bne	a2,a5,a0003bb0 <vsnprintf+0x40>
a0003bd8:	00134603          	lbu	a2,1(t1)
a0003bdc:	08060063          	beqz	a2,a0003c5c <vsnprintf+0xec>
a0003be0:	00230313          	addi	t1,t1,2
a0003be4:	00000793          	li	a5,0
a0003be8:	fd060713          	addi	a4,a2,-48
a0003bec:	0ff77713          	zext.b	a4,a4
a0003bf0:	00900693          	li	a3,9
a0003bf4:	00000593          	li	a1,0
a0003bf8:	02e6fa63          	bgeu	a3,a4,a0003c2c <vsnprintf+0xbc>
a0003bfc:	0e060463          	beqz	a2,a0003ce4 <vsnprintf+0x174>
a0003c00:	fa860693          	addi	a3,a2,-88
a0003c04:	0ff6f713          	zext.b	a4,a3
a0003c08:	02000513          	li	a0,32
a0003c0c:	0ee56a63          	bltu	a0,a4,a0003d00 <vsnprintf+0x190>
a0003c10:	00005517          	auipc	a0,0x5
a0003c14:	65c50513          	addi	a0,a0,1628 # a000926c <minute+0x3e2c>
a0003c18:	00271713          	slli	a4,a4,0x2
a0003c1c:	00a70733          	add	a4,a4,a0
a0003c20:	00072703          	lw	a4,0(a4)
a0003c24:	00a70733          	add	a4,a4,a0
a0003c28:	00070067          	jr	a4
a0003c2c:	00259713          	slli	a4,a1,0x2
a0003c30:	00b70733          	add	a4,a4,a1
a0003c34:	00171713          	slli	a4,a4,0x1
a0003c38:	00130313          	addi	t1,t1,1
a0003c3c:	00c70733          	add	a4,a4,a2
a0003c40:	fff34603          	lbu	a2,-1(t1)
a0003c44:	fd070713          	addi	a4,a4,-48
a0003c48:	00e585b3          	add	a1,a1,a4
a0003c4c:	fd060713          	addi	a4,a2,-48
a0003c50:	0ff77713          	zext.b	a4,a4
a0003c54:	fce6fce3          	bgeu	a3,a4,a0003c2c <vsnprintf+0xbc>
a0003c58:	fa5ff06f          	j	a0003bfc <vsnprintf+0x8c>
a0003c5c:	00234603          	lbu	a2,2(t1)
a0003c60:	00100793          	li	a5,1
a0003c64:	00330313          	addi	t1,t1,3
a0003c68:	f81ff06f          	j	a0003be8 <vsnprintf+0x78>
a0003c6c:	0004a503          	lw	a0,0(s1)
a0003c70:	01810713          	addi	a4,sp,24
a0003c74:	00e12223          	sw	a4,4(sp)
a0003c78:	00b12023          	sw	a1,0(sp)
a0003c7c:	01000613          	li	a2,16
a0003c80:	00000713          	li	a4,0
a0003c84:	0016b693          	seqz	a3,a3
a0003c88:	00000593          	li	a1,0
a0003c8c:	00712623          	sw	t2,12(sp)
a0003c90:	00512423          	sw	t0,8(sp)
a0003c94:	00612823          	sw	t1,16(sp)
a0003c98:	cddff0ef          	jal	ra,a0003974 <klib_itoa.part.0>
a0003c9c:	00812283          	lw	t0,8(sp)
a0003ca0:	00c12383          	lw	t2,12(sp)
a0003ca4:	00448493          	addi	s1,s1,4
a0003ca8:	00550633          	add	a2,a0,t0
a0003cac:	02767c63          	bgeu	a2,t2,a0003ce4 <vsnprintf+0x174>
a0003cb0:	01012303          	lw	t1,16(sp)
a0003cb4:	1aa05663          	blez	a0,a0003e60 <vsnprintf+0x2f0>
a0003cb8:	01810713          	addi	a4,sp,24
a0003cbc:	00a407b3          	add	a5,s0,a0
a0003cc0:	00074683          	lbu	a3,0(a4)
a0003cc4:	00140413          	addi	s0,s0,1
a0003cc8:	00170713          	addi	a4,a4,1
a0003ccc:	fed40fa3          	sb	a3,-1(s0)
a0003cd0:	fef418e3          	bne	s0,a5,a0003cc0 <vsnprintf+0x150>
a0003cd4:	00060293          	mv	t0,a2
a0003cd8:	00034603          	lbu	a2,0(t1)
a0003cdc:	ee0618e3          	bnez	a2,a0003bcc <vsnprintf+0x5c>
a0003ce0:	00078413          	mv	s0,a5
a0003ce4:	00040023          	sb	zero,0(s0)
a0003ce8:	04012083          	lw	ra,64(sp)
a0003cec:	03c12403          	lw	s0,60(sp)
a0003cf0:	03812483          	lw	s1,56(sp)
a0003cf4:	00028513          	mv	a0,t0
a0003cf8:	04410113          	addi	sp,sp,68
a0003cfc:	00008067          	ret
a0003d00:	00140793          	addi	a5,s0,1
a0003d04:	eb9ff06f          	j	a0003bbc <vsnprintf+0x4c>
a0003d08:	0004a703          	lw	a4,0(s1)
a0003d0c:	00712623          	sw	t2,12(sp)
a0003d10:	00512423          	sw	t0,8(sp)
a0003d14:	00070513          	mv	a0,a4
a0003d18:	00612a23          	sw	t1,20(sp)
a0003d1c:	00e12823          	sw	a4,16(sp)
a0003d20:	ba9ff0ef          	jal	ra,a00038c8 <strlen>
a0003d24:	00812283          	lw	t0,8(sp)
a0003d28:	00c12383          	lw	t2,12(sp)
a0003d2c:	00448493          	addi	s1,s1,4
a0003d30:	00550533          	add	a0,a0,t0
a0003d34:	fa7578e3          	bgeu	a0,t2,a0003ce4 <vsnprintf+0x174>
a0003d38:	01012703          	lw	a4,16(sp)
a0003d3c:	01412303          	lw	t1,20(sp)
a0003d40:	00074683          	lbu	a3,0(a4)
a0003d44:	12068463          	beqz	a3,a0003e6c <vsnprintf+0x2fc>
a0003d48:	00040793          	mv	a5,s0
a0003d4c:	00d78023          	sb	a3,0(a5)
a0003d50:	00174683          	lbu	a3,1(a4)
a0003d54:	00170713          	addi	a4,a4,1
a0003d58:	00178793          	addi	a5,a5,1
a0003d5c:	fe0698e3          	bnez	a3,a0003d4c <vsnprintf+0x1dc>
a0003d60:	00050293          	mv	t0,a0
a0003d64:	f75ff06f          	j	a0003cd8 <vsnprintf+0x168>
a0003d68:	0004a503          	lw	a0,0(s1)
a0003d6c:	01810713          	addi	a4,sp,24
a0003d70:	00e12223          	sw	a4,4(sp)
a0003d74:	00b12023          	sw	a1,0(sp)
a0003d78:	00a00613          	li	a2,10
a0003d7c:	00100713          	li	a4,1
a0003d80:	00000693          	li	a3,0
a0003d84:	41f55593          	srai	a1,a0,0x1f
a0003d88:	00712623          	sw	t2,12(sp)
a0003d8c:	00512423          	sw	t0,8(sp)
a0003d90:	00612823          	sw	t1,16(sp)
a0003d94:	be1ff0ef          	jal	ra,a0003974 <klib_itoa.part.0>
a0003d98:	00812283          	lw	t0,8(sp)
a0003d9c:	00c12383          	lw	t2,12(sp)
a0003da0:	00448493          	addi	s1,s1,4
a0003da4:	00550633          	add	a2,a0,t0
a0003da8:	f2767ee3          	bgeu	a2,t2,a0003ce4 <vsnprintf+0x174>
a0003dac:	01012303          	lw	t1,16(sp)
a0003db0:	0aa05863          	blez	a0,a0003e60 <vsnprintf+0x2f0>
a0003db4:	01810713          	addi	a4,sp,24
a0003db8:	00a407b3          	add	a5,s0,a0
a0003dbc:	00074683          	lbu	a3,0(a4)
a0003dc0:	00140413          	addi	s0,s0,1
a0003dc4:	00170713          	addi	a4,a4,1
a0003dc8:	fed40fa3          	sb	a3,-1(s0)
a0003dcc:	fe8798e3          	bne	a5,s0,a0003dbc <vsnprintf+0x24c>
a0003dd0:	f05ff06f          	j	a0003cd4 <vsnprintf+0x164>
a0003dd4:	0004c603          	lbu	a2,0(s1)
a0003dd8:	00140793          	addi	a5,s0,1
a0003ddc:	00128293          	addi	t0,t0,1
a0003de0:	00448493          	addi	s1,s1,4
a0003de4:	dd9ff06f          	j	a0003bbc <vsnprintf+0x4c>
a0003de8:	0004a503          	lw	a0,0(s1)
a0003dec:	01810713          	addi	a4,sp,24
a0003df0:	00e12223          	sw	a4,4(sp)
a0003df4:	00b12023          	sw	a1,0(sp)
a0003df8:	00a00613          	li	a2,10
a0003dfc:	00000713          	li	a4,0
a0003e00:	00000693          	li	a3,0
a0003e04:	00000593          	li	a1,0
a0003e08:	00712623          	sw	t2,12(sp)
a0003e0c:	00512423          	sw	t0,8(sp)
a0003e10:	00612823          	sw	t1,16(sp)
a0003e14:	b61ff0ef          	jal	ra,a0003974 <klib_itoa.part.0>
a0003e18:	00812283          	lw	t0,8(sp)
a0003e1c:	00c12383          	lw	t2,12(sp)
a0003e20:	00448493          	addi	s1,s1,4
a0003e24:	00550633          	add	a2,a0,t0
a0003e28:	ea767ee3          	bgeu	a2,t2,a0003ce4 <vsnprintf+0x174>
a0003e2c:	01012303          	lw	t1,16(sp)
a0003e30:	02a05863          	blez	a0,a0003e60 <vsnprintf+0x2f0>
a0003e34:	01810713          	addi	a4,sp,24
a0003e38:	00a407b3          	add	a5,s0,a0
a0003e3c:	00074683          	lbu	a3,0(a4)
a0003e40:	00140413          	addi	s0,s0,1
a0003e44:	00170713          	addi	a4,a4,1
a0003e48:	fed40fa3          	sb	a3,-1(s0)
a0003e4c:	fe8798e3          	bne	a5,s0,a0003e3c <vsnprintf+0x2cc>
a0003e50:	e85ff06f          	j	a0003cd4 <vsnprintf+0x164>
a0003e54:	00000293          	li	t0,0
a0003e58:	00028513          	mv	a0,t0
a0003e5c:	00008067          	ret
a0003e60:	00060293          	mv	t0,a2
a0003e64:	00040793          	mv	a5,s0
a0003e68:	e71ff06f          	j	a0003cd8 <vsnprintf+0x168>
a0003e6c:	00050293          	mv	t0,a0
a0003e70:	00040793          	mv	a5,s0
a0003e74:	e65ff06f          	j	a0003cd8 <vsnprintf+0x168>
a0003e78:	00100293          	li	t0,1
a0003e7c:	e69ff06f          	j	a0003ce4 <vsnprintf+0x174>

a0003e80 <printf>:
a0003e80:	dd810113          	addi	sp,sp,-552
a0003e84:	21410313          	addi	t1,sp,532
a0003e88:	20b12a23          	sw	a1,532(sp)
a0003e8c:	20c12c23          	sw	a2,536(sp)
a0003e90:	20d12e23          	sw	a3,540(sp)
a0003e94:	00050613          	mv	a2,a0
a0003e98:	00030693          	mv	a3,t1
a0003e9c:	20000593          	li	a1,512
a0003ea0:	00810513          	addi	a0,sp,8
a0003ea4:	22f12223          	sw	a5,548(sp)
a0003ea8:	20112823          	sw	ra,528(sp)
a0003eac:	20812623          	sw	s0,524(sp)
a0003eb0:	20912423          	sw	s1,520(sp)
a0003eb4:	22e12023          	sw	a4,544(sp)
a0003eb8:	00612223          	sw	t1,4(sp)
a0003ebc:	cb5ff0ef          	jal	ra,a0003b70 <vsnprintf>
a0003ec0:	00a12023          	sw	a0,0(sp)
a0003ec4:	1ff00793          	li	a5,511
a0003ec8:	02a7cc63          	blt	a5,a0,a0003f00 <printf+0x80>
a0003ecc:	00810493          	addi	s1,sp,8
a0003ed0:	00a48433          	add	s0,s1,a0
a0003ed4:	00a05a63          	blez	a0,a0003ee8 <printf+0x68>
a0003ed8:	0004c503          	lbu	a0,0(s1)
a0003edc:	00148493          	addi	s1,s1,1
a0003ee0:	bdcff0ef          	jal	ra,a00032bc <putch>
a0003ee4:	fe849ae3          	bne	s1,s0,a0003ed8 <printf+0x58>
a0003ee8:	21012083          	lw	ra,528(sp)
a0003eec:	20c12403          	lw	s0,524(sp)
a0003ef0:	00012503          	lw	a0,0(sp)
a0003ef4:	20812483          	lw	s1,520(sp)
a0003ef8:	22810113          	addi	sp,sp,552
a0003efc:	00008067          	ret
a0003f00:	08200613          	li	a2,130
a0003f04:	00005597          	auipc	a1,0x5
a0003f08:	3ec58593          	addi	a1,a1,1004 # a00092f0 <minute+0x3eb0>
a0003f0c:	00005517          	auipc	a0,0x5
a0003f10:	42c50513          	addi	a0,a0,1068 # a0009338 <minute+0x3ef8>
a0003f14:	f6dff0ef          	jal	ra,a0003e80 <printf>
a0003f18:	00100513          	li	a0,1
a0003f1c:	bc8ff0ef          	jal	ra,a00032e4 <halt>

a0003f20 <rand>:
a0003f20:	00005697          	auipc	a3,0x5
a0003f24:	45c68693          	addi	a3,a3,1116 # a000937c <next>
a0003f28:	0006a783          	lw	a5,0(a3)
a0003f2c:	41c65737          	lui	a4,0x41c65
a0003f30:	e6d70713          	addi	a4,a4,-403 # 41c64e6d <_bdata_lma+0x11c5ba2d>
a0003f34:	02e787b3          	mul	a5,a5,a4
a0003f38:	00003737          	lui	a4,0x3
a0003f3c:	03970713          	addi	a4,a4,57 # 3039 <_entry_offset+0x3039>
a0003f40:	00e787b3          	add	a5,a5,a4
a0003f44:	00179513          	slli	a0,a5,0x1
a0003f48:	00f6a023          	sw	a5,0(a3)
a0003f4c:	01155513          	srli	a0,a0,0x11
a0003f50:	00008067          	ret

a0003f54 <malloc>:
a0003f54:	00050793          	mv	a5,a0
a0003f58:	02050863          	beqz	a0,a0003f88 <malloc+0x34>
a0003f5c:	00005697          	auipc	a3,0x5
a0003f60:	41c68693          	addi	a3,a3,1052 # a0009378 <last_alloc.0>
a0003f64:	00757713          	andi	a4,a0,7
a0003f68:	00e03733          	snez	a4,a4
a0003f6c:	0006a503          	lw	a0,0(a3)
a0003f70:	00371713          	slli	a4,a4,0x3
a0003f74:	ff87f793          	andi	a5,a5,-8
a0003f78:	00e787b3          	add	a5,a5,a4
a0003f7c:	00f507b3          	add	a5,a0,a5
a0003f80:	00f6a023          	sw	a5,0(a3)
a0003f84:	00008067          	ret
a0003f88:	00000513          	li	a0,0
a0003f8c:	00008067          	ret

a0003f90 <__udivmoddi4>:
a0003f90:	fe010113          	addi	sp,sp,-32
a0003f94:	00912a23          	sw	s1,20(sp)
a0003f98:	00112e23          	sw	ra,28(sp)
a0003f9c:	00812c23          	sw	s0,24(sp)
a0003fa0:	00e12223          	sw	a4,4(sp)
a0003fa4:	00050313          	mv	t1,a0
a0003fa8:	00060493          	mv	s1,a2
a0003fac:	02059a63          	bnez	a1,a0003fe0 <__udivmoddi4+0x50>
a0003fb0:	1e069663          	bnez	a3,a000419c <__udivmoddi4+0x20c>
a0003fb4:	00070863          	beqz	a4,a0003fc4 <__udivmoddi4+0x34>
a0003fb8:	02c577b3          	remu	a5,a0,a2
a0003fbc:	00072223          	sw	zero,4(a4)
a0003fc0:	00f72023          	sw	a5,0(a4)
a0003fc4:	02935533          	divu	a0,t1,s1
a0003fc8:	00000593          	li	a1,0
a0003fcc:	01c12083          	lw	ra,28(sp)
a0003fd0:	01812403          	lw	s0,24(sp)
a0003fd4:	01412483          	lw	s1,20(sp)
a0003fd8:	02010113          	addi	sp,sp,32
a0003fdc:	00008067          	ret
a0003fe0:	08061263          	bnez	a2,a0004064 <__udivmoddi4+0xd4>
a0003fe4:	24068463          	beqz	a3,a000422c <__udivmoddi4+0x29c>
a0003fe8:	2c050c63          	beqz	a0,a00042c0 <__udivmoddi4+0x330>
a0003fec:	fff68793          	addi	a5,a3,-1
a0003ff0:	00d7f633          	and	a2,a5,a3
a0003ff4:	30060063          	beqz	a2,a00042f4 <__udivmoddi4+0x364>
a0003ff8:	00a12623          	sw	a0,12(sp)
a0003ffc:	00068513          	mv	a0,a3
a0004000:	00b12823          	sw	a1,16(sp)
a0004004:	00b12023          	sw	a1,0(sp)
a0004008:	00d12423          	sw	a3,8(sp)
a000400c:	44c000ef          	jal	ra,a0004458 <__clzsi2>
a0004010:	00012703          	lw	a4,0(sp)
a0004014:	00050413          	mv	s0,a0
a0004018:	00070513          	mv	a0,a4
a000401c:	43c000ef          	jal	ra,a0004458 <__clzsi2>
a0004020:	40a40533          	sub	a0,s0,a0
a0004024:	01e00793          	li	a5,30
a0004028:	00012703          	lw	a4,0(sp)
a000402c:	00812683          	lw	a3,8(sp)
a0004030:	00c12303          	lw	t1,12(sp)
a0004034:	01012583          	lw	a1,16(sp)
a0004038:	1ea7ec63          	bltu	a5,a0,a0004230 <__udivmoddi4+0x2a0>
a000403c:	00150513          	addi	a0,a0,1
a0004040:	02000393          	li	t2,32
a0004044:	40a383b3          	sub	t2,t2,a0
a0004048:	007715b3          	sll	a1,a4,t2
a000404c:	00a35633          	srl	a2,t1,a0
a0004050:	00a757b3          	srl	a5,a4,a0
a0004054:	007313b3          	sll	t2,t1,t2
a0004058:	00c5e733          	or	a4,a1,a2
a000405c:	00000413          	li	s0,0
a0004060:	0780006f          	j	a00040d8 <__udivmoddi4+0x148>
a0004064:	16068263          	beqz	a3,a00041c8 <__udivmoddi4+0x238>
a0004068:	00a12423          	sw	a0,8(sp)
a000406c:	00068513          	mv	a0,a3
a0004070:	00b12623          	sw	a1,12(sp)
a0004074:	00b12023          	sw	a1,0(sp)
a0004078:	00d12823          	sw	a3,16(sp)
a000407c:	3dc000ef          	jal	ra,a0004458 <__clzsi2>
a0004080:	00012703          	lw	a4,0(sp)
a0004084:	00050413          	mv	s0,a0
a0004088:	00070513          	mv	a0,a4
a000408c:	3cc000ef          	jal	ra,a0004458 <__clzsi2>
a0004090:	40a40533          	sub	a0,s0,a0
a0004094:	01f00793          	li	a5,31
a0004098:	00812303          	lw	t1,8(sp)
a000409c:	00c12583          	lw	a1,12(sp)
a00040a0:	18a7e863          	bltu	a5,a0,a0004230 <__udivmoddi4+0x2a0>
a00040a4:	00150513          	addi	a0,a0,1
a00040a8:	02000793          	li	a5,32
a00040ac:	00012703          	lw	a4,0(sp)
a00040b0:	01012683          	lw	a3,16(sp)
a00040b4:	00030393          	mv	t2,t1
a00040b8:	26f50663          	beq	a0,a5,a0004324 <__udivmoddi4+0x394>
a00040bc:	40a78633          	sub	a2,a5,a0
a00040c0:	00a355b3          	srl	a1,t1,a0
a00040c4:	00c71333          	sll	t1,a4,a2
a00040c8:	00a757b3          	srl	a5,a4,a0
a00040cc:	00c393b3          	sll	t2,t2,a2
a00040d0:	00b36733          	or	a4,t1,a1
a00040d4:	00000413          	li	s0,0
a00040d8:	00068613          	mv	a2,a3
a00040dc:	00012023          	sw	zero,0(sp)
a00040e0:	00078693          	mv	a3,a5
a00040e4:	00060793          	mv	a5,a2
a00040e8:	01f3d593          	srli	a1,t2,0x1f
a00040ec:	00171613          	slli	a2,a4,0x1
a00040f0:	00b66633          	or	a2,a2,a1
a00040f4:	01f75713          	srli	a4,a4,0x1f
a00040f8:	00169693          	slli	a3,a3,0x1
a00040fc:	00e6e6b3          	or	a3,a3,a4
a0004100:	40c48733          	sub	a4,s1,a2
a0004104:	00e4b333          	sltu	t1,s1,a4
a0004108:	40d785b3          	sub	a1,a5,a3
a000410c:	406585b3          	sub	a1,a1,t1
a0004110:	00173713          	seqz	a4,a4
a0004114:	40e585b3          	sub	a1,a1,a4
a0004118:	41f5d313          	srai	t1,a1,0x1f
a000411c:	00937733          	and	a4,t1,s1
a0004120:	00f37333          	and	t1,t1,a5
a0004124:	406686b3          	sub	a3,a3,t1
a0004128:	00012303          	lw	t1,0(sp)
a000412c:	40e60733          	sub	a4,a2,a4
a0004130:	01f5d593          	srli	a1,a1,0x1f
a0004134:	01f45293          	srli	t0,s0,0x1f
a0004138:	00139393          	slli	t2,t2,0x1
a000413c:	00141413          	slli	s0,s0,0x1
a0004140:	00e63633          	sltu	a2,a2,a4
a0004144:	fff50513          	addi	a0,a0,-1
a0004148:	00b12023          	sw	a1,0(sp)
a000414c:	00646433          	or	s0,s0,t1
a0004150:	0053e3b3          	or	t2,t2,t0
a0004154:	40c686b3          	sub	a3,a3,a2
a0004158:	f80518e3          	bnez	a0,a00040e8 <__udivmoddi4+0x158>
a000415c:	00068793          	mv	a5,a3
a0004160:	00012683          	lw	a3,0(sp)
a0004164:	01f45593          	srli	a1,s0,0x1f
a0004168:	00141413          	slli	s0,s0,0x1
a000416c:	00d46533          	or	a0,s0,a3
a0004170:	00412683          	lw	a3,4(sp)
a0004174:	00139393          	slli	t2,t2,0x1
a0004178:	0075e5b3          	or	a1,a1,t2
a000417c:	e40688e3          	beqz	a3,a0003fcc <__udivmoddi4+0x3c>
a0004180:	01c12083          	lw	ra,28(sp)
a0004184:	01812403          	lw	s0,24(sp)
a0004188:	00e6a023          	sw	a4,0(a3)
a000418c:	00f6a223          	sw	a5,4(a3)
a0004190:	01412483          	lw	s1,20(sp)
a0004194:	02010113          	addi	sp,sp,32
a0004198:	00008067          	ret
a000419c:	00412783          	lw	a5,4(sp)
a00041a0:	08078c63          	beqz	a5,a0004238 <__udivmoddi4+0x2a8>
a00041a4:	01c12083          	lw	ra,28(sp)
a00041a8:	01812403          	lw	s0,24(sp)
a00041ac:	00a7a023          	sw	a0,0(a5)
a00041b0:	0007a223          	sw	zero,4(a5)
a00041b4:	01412483          	lw	s1,20(sp)
a00041b8:	00000513          	li	a0,0
a00041bc:	00000593          	li	a1,0
a00041c0:	02010113          	addi	sp,sp,32
a00041c4:	00008067          	ret
a00041c8:	fff60793          	addi	a5,a2,-1
a00041cc:	00c7f633          	and	a2,a5,a2
a00041d0:	06061a63          	bnez	a2,a0004244 <__udivmoddi4+0x2b4>
a00041d4:	00412703          	lw	a4,4(sp)
a00041d8:	00070863          	beqz	a4,a00041e8 <__udivmoddi4+0x258>
a00041dc:	00a7f7b3          	and	a5,a5,a0
a00041e0:	00f72023          	sw	a5,0(a4)
a00041e4:	00072223          	sw	zero,4(a4)
a00041e8:	00100793          	li	a5,1
a00041ec:	00030513          	mv	a0,t1
a00041f0:	dcf48ee3          	beq	s1,a5,a0003fcc <__udivmoddi4+0x3c>
a00041f4:	00048513          	mv	a0,s1
a00041f8:	00b12223          	sw	a1,4(sp)
a00041fc:	00612023          	sw	t1,0(sp)
a0004200:	2f0000ef          	jal	ra,a00044f0 <__ctzsi2>
a0004204:	00412583          	lw	a1,4(sp)
a0004208:	00012303          	lw	t1,0(sp)
a000420c:	02000713          	li	a4,32
a0004210:	40a70733          	sub	a4,a4,a0
a0004214:	00050793          	mv	a5,a0
a0004218:	00e59733          	sll	a4,a1,a4
a000421c:	00a35333          	srl	t1,t1,a0
a0004220:	00676533          	or	a0,a4,t1
a0004224:	00f5d5b3          	srl	a1,a1,a5
a0004228:	da5ff06f          	j	a0003fcc <__udivmoddi4+0x3c>
a000422c:	00100073          	ebreak
a0004230:	00412783          	lw	a5,4(sp)
a0004234:	0a079663          	bnez	a5,a00042e0 <__udivmoddi4+0x350>
a0004238:	00000513          	li	a0,0
a000423c:	00000593          	li	a1,0
a0004240:	d8dff06f          	j	a0003fcc <__udivmoddi4+0x3c>
a0004244:	00a12623          	sw	a0,12(sp)
a0004248:	00048513          	mv	a0,s1
a000424c:	00068413          	mv	s0,a3
a0004250:	00d12823          	sw	a3,16(sp)
a0004254:	00b12023          	sw	a1,0(sp)
a0004258:	200000ef          	jal	ra,a0004458 <__clzsi2>
a000425c:	00012703          	lw	a4,0(sp)
a0004260:	00050613          	mv	a2,a0
a0004264:	00c12023          	sw	a2,0(sp)
a0004268:	00070513          	mv	a0,a4
a000426c:	00e12423          	sw	a4,8(sp)
a0004270:	1e8000ef          	jal	ra,a0004458 <__clzsi2>
a0004274:	00012603          	lw	a2,0(sp)
a0004278:	00c12303          	lw	t1,12(sp)
a000427c:	02000593          	li	a1,32
a0004280:	40a60633          	sub	a2,a2,a0
a0004284:	02160513          	addi	a0,a2,33
a0004288:	00812703          	lw	a4,8(sp)
a000428c:	01012683          	lw	a3,16(sp)
a0004290:	00030393          	mv	t2,t1
a0004294:	00000793          	li	a5,0
a0004298:	e4b500e3          	beq	a0,a1,a00040d8 <__udivmoddi4+0x148>
a000429c:	01f00313          	li	t1,31
a00042a0:	08a36863          	bltu	t1,a0,a0004330 <__udivmoddi4+0x3a0>
a00042a4:	40a585b3          	sub	a1,a1,a0
a00042a8:	00a3d633          	srl	a2,t2,a0
a00042ac:	00b71333          	sll	t1,a4,a1
a00042b0:	00a757b3          	srl	a5,a4,a0
a00042b4:	00b393b3          	sll	t2,t2,a1
a00042b8:	00c36733          	or	a4,t1,a2
a00042bc:	e1dff06f          	j	a00040d8 <__udivmoddi4+0x148>
a00042c0:	00412703          	lw	a4,4(sp)
a00042c4:	00070863          	beqz	a4,a00042d4 <__udivmoddi4+0x344>
a00042c8:	02d5f7b3          	remu	a5,a1,a3
a00042cc:	00072023          	sw	zero,0(a4)
a00042d0:	00f72223          	sw	a5,4(a4)
a00042d4:	02d5d533          	divu	a0,a1,a3
a00042d8:	00000593          	li	a1,0
a00042dc:	cf1ff06f          	j	a0003fcc <__udivmoddi4+0x3c>
a00042e0:	00b7a223          	sw	a1,4(a5)
a00042e4:	0067a023          	sw	t1,0(a5)
a00042e8:	00000513          	li	a0,0
a00042ec:	00000593          	li	a1,0
a00042f0:	cddff06f          	j	a0003fcc <__udivmoddi4+0x3c>
a00042f4:	00412703          	lw	a4,4(sp)
a00042f8:	00070863          	beqz	a4,a0004308 <__udivmoddi4+0x378>
a00042fc:	00b7f7b3          	and	a5,a5,a1
a0004300:	00a72023          	sw	a0,0(a4)
a0004304:	00f72223          	sw	a5,4(a4)
a0004308:	00068513          	mv	a0,a3
a000430c:	00b12023          	sw	a1,0(sp)
a0004310:	1e0000ef          	jal	ra,a00044f0 <__ctzsi2>
a0004314:	00012583          	lw	a1,0(sp)
a0004318:	00a5d533          	srl	a0,a1,a0
a000431c:	00000593          	li	a1,0
a0004320:	cadff06f          	j	a0003fcc <__udivmoddi4+0x3c>
a0004324:	00000793          	li	a5,0
a0004328:	00000413          	li	s0,0
a000432c:	dadff06f          	j	a00040d8 <__udivmoddi4+0x148>
a0004330:	04000593          	li	a1,64
a0004334:	40a585b3          	sub	a1,a1,a0
a0004338:	00160613          	addi	a2,a2,1
a000433c:	00b39433          	sll	s0,t2,a1
a0004340:	00b715b3          	sll	a1,a4,a1
a0004344:	00c3d3b3          	srl	t2,t2,a2
a0004348:	0075e3b3          	or	t2,a1,t2
a000434c:	00c75733          	srl	a4,a4,a2
a0004350:	d89ff06f          	j	a00040d8 <__udivmoddi4+0x148>

a0004354 <__divdi3>:
a0004354:	41f5d313          	srai	t1,a1,0x1f
a0004358:	41f6d793          	srai	a5,a3,0x1f
a000435c:	006542b3          	xor	t0,a0,t1
a0004360:	00f643b3          	xor	t2,a2,a5
a0004364:	40f38633          	sub	a2,t2,a5
a0004368:	40628533          	sub	a0,t0,t1
a000436c:	0065c5b3          	xor	a1,a1,t1
a0004370:	00f6c6b3          	xor	a3,a3,a5
a0004374:	00c3b3b3          	sltu	t2,t2,a2
a0004378:	40f686b3          	sub	a3,a3,a5
a000437c:	00a2b2b3          	sltu	t0,t0,a0
a0004380:	406585b3          	sub	a1,a1,t1
a0004384:	ff410113          	addi	sp,sp,-12
a0004388:	00000713          	li	a4,0
a000438c:	407686b3          	sub	a3,a3,t2
a0004390:	405585b3          	sub	a1,a1,t0
a0004394:	00812223          	sw	s0,4(sp)
a0004398:	00112423          	sw	ra,8(sp)
a000439c:	00f34433          	xor	s0,t1,a5
a00043a0:	bf1ff0ef          	jal	ra,a0003f90 <__udivmoddi4>
a00043a4:	00854733          	xor	a4,a0,s0
a00043a8:	0085c5b3          	xor	a1,a1,s0
a00043ac:	40870533          	sub	a0,a4,s0
a00043b0:	00812083          	lw	ra,8(sp)
a00043b4:	408585b3          	sub	a1,a1,s0
a00043b8:	00412403          	lw	s0,4(sp)
a00043bc:	00a73733          	sltu	a4,a4,a0
a00043c0:	40e585b3          	sub	a1,a1,a4
a00043c4:	00c10113          	addi	sp,sp,12
a00043c8:	00008067          	ret

a00043cc <__moddi3>:
a00043cc:	fe810113          	addi	sp,sp,-24
a00043d0:	00812823          	sw	s0,16(sp)
a00043d4:	41f6d313          	srai	t1,a3,0x1f
a00043d8:	41f5d413          	srai	s0,a1,0x1f
a00043dc:	00854733          	xor	a4,a0,s0
a00043e0:	006647b3          	xor	a5,a2,t1
a00043e4:	00912623          	sw	s1,12(sp)
a00043e8:	40870533          	sub	a0,a4,s0
a00043ec:	40678633          	sub	a2,a5,t1
a00043f0:	0066c6b3          	xor	a3,a3,t1
a00043f4:	0085c5b3          	xor	a1,a1,s0
a00043f8:	00710493          	addi	s1,sp,7
a00043fc:	ff84f493          	andi	s1,s1,-8
a0004400:	00c7b7b3          	sltu	a5,a5,a2
a0004404:	406686b3          	sub	a3,a3,t1
a0004408:	408585b3          	sub	a1,a1,s0
a000440c:	00a73333          	sltu	t1,a4,a0
a0004410:	40f686b3          	sub	a3,a3,a5
a0004414:	00048713          	mv	a4,s1
a0004418:	406585b3          	sub	a1,a1,t1
a000441c:	00112a23          	sw	ra,20(sp)
a0004420:	b71ff0ef          	jal	ra,a0003f90 <__udivmoddi4>
a0004424:	0004a783          	lw	a5,0(s1)
a0004428:	0044a583          	lw	a1,4(s1)
a000442c:	01412083          	lw	ra,20(sp)
a0004430:	0087c7b3          	xor	a5,a5,s0
a0004434:	0085c5b3          	xor	a1,a1,s0
a0004438:	40878533          	sub	a0,a5,s0
a000443c:	408585b3          	sub	a1,a1,s0
a0004440:	01012403          	lw	s0,16(sp)
a0004444:	00a7b7b3          	sltu	a5,a5,a0
a0004448:	00c12483          	lw	s1,12(sp)
a000444c:	40f585b3          	sub	a1,a1,a5
a0004450:	01810113          	addi	sp,sp,24
a0004454:	00008067          	ret

a0004458 <__clzsi2>:
a0004458:	ffff0637          	lui	a2,0xffff0
a000445c:	00c57633          	and	a2,a0,a2
a0004460:	00163613          	seqz	a2,a2
a0004464:	00461613          	slli	a2,a2,0x4
a0004468:	01000793          	li	a5,16
a000446c:	40c787b3          	sub	a5,a5,a2
a0004470:	00010737          	lui	a4,0x10
a0004474:	00f557b3          	srl	a5,a0,a5
a0004478:	f0070713          	addi	a4,a4,-256 # ff00 <_entry_offset+0xff00>
a000447c:	00e7f733          	and	a4,a5,a4
a0004480:	00173713          	seqz	a4,a4
a0004484:	00371713          	slli	a4,a4,0x3
a0004488:	00800693          	li	a3,8
a000448c:	40e686b3          	sub	a3,a3,a4
a0004490:	00d7d7b3          	srl	a5,a5,a3
a0004494:	0f07f593          	andi	a1,a5,240
a0004498:	0015b593          	seqz	a1,a1
a000449c:	00259593          	slli	a1,a1,0x2
a00044a0:	00400693          	li	a3,4
a00044a4:	40b686b3          	sub	a3,a3,a1
a00044a8:	00d7d7b3          	srl	a5,a5,a3
a00044ac:	00c7f513          	andi	a0,a5,12
a00044b0:	00153513          	seqz	a0,a0
a00044b4:	00151513          	slli	a0,a0,0x1
a00044b8:	00200313          	li	t1,2
a00044bc:	40a306b3          	sub	a3,t1,a0
a00044c0:	00d7d7b3          	srl	a5,a5,a3
a00044c4:	0017d693          	srli	a3,a5,0x1
a00044c8:	0016c693          	xori	a3,a3,1
a00044cc:	00c70733          	add	a4,a4,a2
a00044d0:	0016f693          	andi	a3,a3,1
a00044d4:	00e585b3          	add	a1,a1,a4
a00044d8:	40f30333          	sub	t1,t1,a5
a00044dc:	40d006b3          	neg	a3,a3
a00044e0:	0066f6b3          	and	a3,a3,t1
a00044e4:	00b50533          	add	a0,a0,a1
a00044e8:	00a68533          	add	a0,a3,a0
a00044ec:	00008067          	ret

a00044f0 <__ctzsi2>:
a00044f0:	01051593          	slli	a1,a0,0x10
a00044f4:	0105d593          	srli	a1,a1,0x10
a00044f8:	0015b593          	seqz	a1,a1
a00044fc:	00459593          	slli	a1,a1,0x4
a0004500:	00b557b3          	srl	a5,a0,a1
a0004504:	0ff7f613          	zext.b	a2,a5
a0004508:	00163613          	seqz	a2,a2
a000450c:	00361613          	slli	a2,a2,0x3
a0004510:	00c7d7b3          	srl	a5,a5,a2
a0004514:	00f7f693          	andi	a3,a5,15
a0004518:	0016b693          	seqz	a3,a3
a000451c:	00269693          	slli	a3,a3,0x2
a0004520:	00d7d7b3          	srl	a5,a5,a3
a0004524:	0037f713          	andi	a4,a5,3
a0004528:	00173713          	seqz	a4,a4
a000452c:	00171713          	slli	a4,a4,0x1
a0004530:	00e7d7b3          	srl	a5,a5,a4
a0004534:	0017d513          	srli	a0,a5,0x1
a0004538:	00b60633          	add	a2,a2,a1
a000453c:	0017f793          	andi	a5,a5,1
a0004540:	00157593          	andi	a1,a0,1
a0004544:	00200513          	li	a0,2
a0004548:	40b50533          	sub	a0,a0,a1
a000454c:	00c686b3          	add	a3,a3,a2
a0004550:	fff78793          	addi	a5,a5,-1
a0004554:	00f577b3          	and	a5,a0,a5
a0004558:	00d70533          	add	a0,a4,a3
a000455c:	00a78533          	add	a0,a5,a0
a0004560:	00008067          	ret
a0004564:	7355                	.2byte	0x7355
a0004566:	6761                	.2byte	0x6761
a0004568:	3a65                	.2byte	0x3a65
a000456a:	6d20                	.2byte	0x6d20
a000456c:	6b61                	.2byte	0x6b61
a000456e:	2065                	.2byte	0x2065
a0004570:	7572                	.2byte	0x7572
a0004572:	206e                	.2byte	0x206e
a0004574:	616d                	.2byte	0x616d
a0004576:	6e69                	.2byte	0x6e69
a0004578:	7261                	.2byte	0x7261
a000457a:	2a3d7367          	.4byte	0x2a3d7367
a000457e:	000a                	.2byte	0xa
a0004580:	2020                	.2byte	0x2020
a0004582:	3a31                	.2byte	0x3a31
a0004584:	6120                	.2byte	0x6120
a0004586:	746e                	.2byte	0x746e
a0004588:	000a                	.2byte	0xa
a000458a:	0000                	.2byte	0x0
a000458c:	2020                	.2byte	0x2020
a000458e:	3a32                	.2byte	0x3a32
a0004590:	6720                	.2byte	0x6720
a0004592:	6c61                	.2byte	0x6c61
a0004594:	6f74                	.2byte	0x6f74
a0004596:	0a6e                	.2byte	0xa6e
a0004598:	0000                	.2byte	0x0
a000459a:	0000                	.2byte	0x0
a000459c:	2020                	.2byte	0x2020
a000459e:	68203a33          	.4byte	0x68203a33
a00045a2:	6e61                	.2byte	0x6e61
a00045a4:	000a696f          	jal	s2,a00aa5a4 <_heap_start+0x9c5a4>
a00045a8:	2020                	.2byte	0x2020
a00045aa:	3a34                	.2byte	0x3a34
a00045ac:	6720                	.2byte	0x6720
a00045ae:	6d61                	.2byte	0x6d61
a00045b0:	2065                	.2byte	0x2065
a00045b2:	6c20666f          	jal	a2,a000ac74 <buf.2+0x328>
a00045b6:	6669                	.2byte	0x6669
a00045b8:	0a65                	.2byte	0xa65
a00045ba:	0000                	.2byte	0x0
a00045bc:	2020                	.2byte	0x2020
a00045be:	3a35                	.2byte	0x3a35
a00045c0:	6120                	.2byte	0x6120
a00045c2:	636f6c63          	bltu	t5,s6,a0004bfa <hour+0x2fa>
a00045c6:	00000a6b          	.4byte	0xa6b
a00045ca:	0000                	.2byte	0x0
a00045cc:	2020                	.2byte	0x2020
a00045ce:	3a36                	.2byte	0x3a36
a00045d0:	6320                	.2byte	0x6320
a00045d2:	616d                	.2byte	0x616d
a00045d4:	7274                	.2byte	0x7274
a00045d6:	7869                	.2byte	0x7869
a00045d8:	000a                	.2byte	0xa
a00045da:	0000                	.2byte	0x0
a00045dc:	2020                	.2byte	0x2020
a00045de:	64203a37          	lui	s4,0x64203
a00045e2:	74756e6f          	jal	t3,a005b528 <_heap_start+0x4d528>
a00045e6:	000a                	.2byte	0xa
a00045e8:	2020                	.2byte	0x2020
a00045ea:	3a38                	.2byte	0x3a38
a00045ec:	6220                	.2byte	0x6220
a00045ee:	0a66                	.2byte	0xa66
a00045f0:	0000                	.2byte	0x0
a00045f2:	0000                	.2byte	0x0
a00045f4:	7250                	.2byte	0x7250
a00045f6:	7365                	.2byte	0x7365
a00045f8:	20512073          	.4byte	0x20512073
a00045fc:	6f74                	.2byte	0x6f74
a00045fe:	4520                	.2byte	0x4520
a0004600:	6978                	.2byte	0x6978
a0004602:	0a74                	.2byte	0xa74
a0004604:	0000                	.2byte	0x0
a0004606:	0000                	.2byte	0x0
a0004608:	ba88                	.2byte	0xba88
a000460a:	ffff                	.2byte	0xffff
a000460c:	ba90                	.2byte	0xba90
a000460e:	ffff                	.2byte	0xffff
a0004610:	ba98                	.2byte	0xba98
a0004612:	ffff                	.2byte	0xffff
a0004614:	baa0                	.2byte	0xbaa0
a0004616:	ffff                	.2byte	0xffff
a0004618:	baa8                	.2byte	0xbaa8
a000461a:	ffff                	.2byte	0xffff
a000461c:	bab0                	.2byte	0xbab0
a000461e:	ffff                	.2byte	0xffff
a0004620:	ba3c                	.2byte	0xba3c
a0004622:	ffff                	.2byte	0xffff
a0004624:	ba80                	.2byte	0xba80
a0004626:	ffff                	.2byte	0xffff
a0004628:	3d3d                	.2byte	0x3d3d
a000462a:	0000                	.2byte	0x0
a000462c:	2020                	.2byte	0x2020
	...

a0004630 <circle>:
a0004630:	003e 0000 000c 0000 006f 0000 003d 0000     >.......o...=...
a0004640:	000d 0000 002e 0000 003d 0000 000e 0000     ........=.......
a0004650:	002e 0000 003c 0000 000f 0000 002e 0000     ....<...........
a0004660:	003c 0000 0010 0000 002e 0000 003b 0000     <...........;...
a0004670:	0011 0000 006f 0000 0039 0000 0012 0000     ....o...9.......
a0004680:	002e 0000 0038 0000 0013 0000 002e 0000     ....8...........
a0004690:	0036 0000 0014 0000 002e 0000 0034 0000     6...........4...
a00046a0:	0014 0000 002e 0000 0033 0000 0015 0000     ........3.......
a00046b0:	006f 0000 0030 0000 0016 0000 002e 0000     o...0...........
a00046c0:	002e 0000 0016 0000 002e 0000 002c 0000     ............,...
a00046d0:	0016 0000 002e 0000 002a 0000 0016 0000     ........*.......
a00046e0:	002e 0000 0028 0000 0017 0000 006f 0000     ....(.......o...
a00046f0:	0025 0000 0016 0000 002e 0000 0023 0000     %...........#...
a0004700:	0016 0000 002e 0000 0021 0000 0016 0000     ........!.......
a0004710:	002e 0000 001f 0000 0016 0000 002e 0000     ................
a0004720:	001d 0000 0015 0000 006f 0000 001b 0000     ........o.......
a0004730:	0014 0000 002e 0000 0019 0000 0014 0000     ................
a0004740:	002e 0000 0017 0000 0013 0000 002e 0000     ................
a0004750:	0016 0000 0012 0000 002e 0000 0014 0000     ................
a0004760:	0011 0000 006f 0000 0013 0000 0010 0000     ....o...........
a0004770:	002e 0000 0013 0000 000f 0000 002e 0000     ................
a0004780:	0012 0000 000e 0000 002e 0000 0012 0000     ................
a0004790:	000d 0000 002e 0000 0012 0000 000c 0000     ................
a00047a0:	006f 0000 0012 0000 000a 0000 002e 0000     o...............
a00047b0:	0012 0000 0009 0000 002e 0000 0013 0000     ................
a00047c0:	0008 0000 002e 0000 0013 0000 0007 0000     ................
a00047d0:	002e 0000 0014 0000 0006 0000 006f 0000     ............o...
a00047e0:	0016 0000 0005 0000 002e 0000 0017 0000     ................
a00047f0:	0004 0000 002e 0000 0019 0000 0003 0000     ................
a0004800:	002e 0000 001b 0000 0003 0000 002e 0000     ................
a0004810:	001c 0000 0002 0000 006f 0000 001f 0000     ........o.......
a0004820:	0001 0000 002e 0000 0021 0000 0001 0000     ........!.......
a0004830:	002e 0000 0023 0000 0001 0000 002e 0000     ....#...........
a0004840:	0025 0000 0001 0000 002e 0000 0027 0000     %...........'...
a0004850:	0001 0000 006f 0000 002a 0000 0001 0000     ....o...*.......
a0004860:	002e 0000 002c 0000 0001 0000 002e 0000     ....,...........
a0004870:	002e 0000 0001 0000 002e 0000 0030 0000     ............0...
a0004880:	0001 0000 002e 0000 0033 0000 0002 0000     ........3.......
a0004890:	006f 0000 0034 0000 0003 0000 002e 0000     o...4...........
a00048a0:	0036 0000 0003 0000 002e 0000 0038 0000     6...........8...
a00048b0:	0004 0000 002e 0000 0039 0000 0005 0000     ........9.......
a00048c0:	002e 0000 003b 0000 0006 0000 006f 0000     ....;.......o...
a00048d0:	003c 0000 0007 0000 002e 0000 003c 0000     <...........<...
a00048e0:	0008 0000 002e 0000 003d 0000 0009 0000     ........=.......
a00048f0:	002e 0000 003d 0000 000a 0000 002e 0000     ....=...........

a0004900 <hour>:
a0004900:	0027 0000 000b 0000 0027 0000 000a 0000     '.......'.......
a0004910:	0027 0000 0009 0000 0027 0000 0008 0000     '.......'.......
a0004920:	0027 0000 0007 0000 0027 0000 0006 0000     '.......'.......
a0004930:	0028 0000 000b 0000 0028 0000 000a 0000     (.......(.......
a0004940:	0028 0000 0009 0000 0028 0000 0008 0000     (.......(.......
a0004950:	0029 0000 0007 0000 0029 0000 0006 0000     ).......).......
a0004960:	0028 0000 000b 0000 0028 0000 000a 0000     (.......(.......
a0004970:	0029 0000 0009 0000 0029 0000 0008 0000     ).......).......
a0004980:	002a 0000 0007 0000 002a 0000 0006 0000     *.......*.......
a0004990:	0028 0000 000b 0000 0029 0000 000a 0000     (.......).......
a00049a0:	0029 0000 0009 0000 002a 0000 0008 0000     ).......*.......
a00049b0:	002b 0000 0007 0000 002b 0000 0006 0000     +.......+.......
a00049c0:	0028 0000 000b 0000 0029 0000 000a 0000     (.......).......
a00049d0:	002a 0000 0009 0000 002b 0000 0008 0000     *.......+.......
a00049e0:	002c 0000 0007 0000 002c 0000 0006 0000     ,.......,.......
a00049f0:	0028 0000 000b 0000 0029 0000 000a 0000     (.......).......
a0004a00:	002a 0000 0009 0000 002b 0000 0008 0000     *.......+.......
a0004a10:	002c 0000 0007 0000 002d 0000 0006 0000     ,.......-.......
a0004a20:	0029 0000 000b 0000 002a 0000 000a 0000     ).......*.......
a0004a30:	002b 0000 0009 0000 002c 0000 0008 0000     +.......,.......
a0004a40:	002d 0000 0007 0000 002f 0000 0007 0000     -......./.......
a0004a50:	0029 0000 000b 0000 002a 0000 000a 0000     ).......*.......
a0004a60:	002c 0000 0009 0000 002d 0000 0009 0000     ,.......-.......
a0004a70:	002e 0000 0008 0000 0030 0000 0007 0000     ........0.......
a0004a80:	0029 0000 000b 0000 002a 0000 000a 0000     ).......*.......
a0004a90:	002c 0000 0009 0000 002d 0000 0009 0000     ,.......-.......
a0004aa0:	002f 0000 0008 0000 0030 0000 0007 0000     /.......0.......
a0004ab0:	0029 0000 000b 0000 002b 0000 000a 0000     ).......+.......
a0004ac0:	002c 0000 000a 0000 002e 0000 0009 0000     ,...............
a0004ad0:	0030 0000 0009 0000 0031 0000 0008 0000     0.......1.......
a0004ae0:	0029 0000 000b 0000 002b 0000 000a 0000     ).......+.......
a0004af0:	002d 0000 000a 0000 002e 0000 0009 0000     -...............
a0004b00:	0030 0000 0009 0000 0032 0000 0008 0000     0.......2.......
a0004b10:	0029 0000 000b 0000 002b 0000 000b 0000     ).......+.......
a0004b20:	002d 0000 000a 0000 002f 0000 000a 0000     -......./.......
a0004b30:	0031 0000 0009 0000 0032 0000 0009 0000     1.......2.......
a0004b40:	0029 0000 000b 0000 002b 0000 000b 0000     ).......+.......
a0004b50:	002d 0000 000b 0000 002f 0000 000a 0000     -......./.......
a0004b60:	0031 0000 000a 0000 0033 0000 000a 0000     1.......3.......
a0004b70:	0029 0000 000b 0000 002b 0000 000b 0000     ).......+.......
a0004b80:	002d 0000 000b 0000 002f 0000 000b 0000     -......./.......
a0004b90:	0031 0000 000a 0000 0033 0000 000a 0000     1.......3.......
a0004ba0:	0029 0000 000b 0000 002b 0000 000b 0000     ).......+.......
a0004bb0:	002d 0000 000b 0000 002f 0000 000b 0000     -......./.......
a0004bc0:	0031 0000 000b 0000 0033 0000 000b 0000     1.......3.......
a0004bd0:	002a 0000 000c 0000 002c 0000 000c 0000     *.......,.......
a0004be0:	002e 0000 000c 0000 0030 0000 000c 0000     ........0.......
a0004bf0:	0032 0000 000c 0000 0034 0000 000c 0000     2.......4.......
a0004c00:	0029 0000 000c 0000 002b 0000 000c 0000     ).......+.......
a0004c10:	002d 0000 000c 0000 002f 0000 000c 0000     -......./.......
a0004c20:	0031 0000 000c 0000 0033 0000 000c 0000     1.......3.......
a0004c30:	0029 0000 000c 0000 002b 0000 000c 0000     ).......+.......
a0004c40:	002d 0000 000c 0000 002f 0000 000c 0000     -......./.......
a0004c50:	0031 0000 000d 0000 0033 0000 000d 0000     1.......3.......
a0004c60:	0029 0000 000c 0000 002b 0000 000c 0000     ).......+.......
a0004c70:	002d 0000 000c 0000 002f 0000 000d 0000     -......./.......
a0004c80:	0031 0000 000d 0000 0033 0000 000d 0000     1.......3.......
a0004c90:	0029 0000 000c 0000 002b 0000 000c 0000     ).......+.......
a0004ca0:	002d 0000 000d 0000 002f 0000 000d 0000     -......./.......
a0004cb0:	0031 0000 000e 0000 0032 0000 000e 0000     1.......2.......
a0004cc0:	0029 0000 000c 0000 002b 0000 000d 0000     ).......+.......
a0004cd0:	002d 0000 000d 0000 002e 0000 000e 0000     -...............
a0004ce0:	0030 0000 000e 0000 0032 0000 000f 0000     0.......2.......
a0004cf0:	0029 0000 000c 0000 002b 0000 000d 0000     ).......+.......
a0004d00:	002c 0000 000d 0000 002e 0000 000e 0000     ,...............
a0004d10:	0030 0000 000e 0000 0031 0000 000f 0000     0.......1.......
a0004d20:	0029 0000 000c 0000 002a 0000 000d 0000     ).......*.......
a0004d30:	002c 0000 000e 0000 002d 0000 000e 0000     ,.......-.......
a0004d40:	002f 0000 000f 0000 0030 0000 0010 0000     /.......0.......
a0004d50:	0029 0000 000c 0000 002a 0000 000d 0000     ).......*.......
a0004d60:	002c 0000 000e 0000 002d 0000 000e 0000     ,.......-.......
a0004d70:	002e 0000 000f 0000 0030 0000 0010 0000     ........0.......
a0004d80:	0029 0000 000c 0000 002a 0000 000d 0000     ).......*.......
a0004d90:	002b 0000 000e 0000 002c 0000 000f 0000     +.......,.......
a0004da0:	002d 0000 0010 0000 002f 0000 0010 0000     -......./.......
a0004db0:	0028 0000 000c 0000 0029 0000 000d 0000     (.......).......
a0004dc0:	002a 0000 000e 0000 002b 0000 000f 0000     *.......+.......
a0004dd0:	002c 0000 0010 0000 002d 0000 0011 0000     ,.......-.......
a0004de0:	0028 0000 000c 0000 0029 0000 000d 0000     (.......).......
a0004df0:	002a 0000 000e 0000 002b 0000 000f 0000     *.......+.......
a0004e00:	002c 0000 0010 0000 002c 0000 0011 0000     ,.......,.......
a0004e10:	0028 0000 000c 0000 0029 0000 000d 0000     (.......).......
a0004e20:	0029 0000 000e 0000 002a 0000 000f 0000     ).......*.......
a0004e30:	002b 0000 0010 0000 002b 0000 0011 0000     +.......+.......
a0004e40:	0028 0000 000c 0000 0028 0000 000d 0000     (.......(.......
a0004e50:	0029 0000 000e 0000 0029 0000 000f 0000     ).......).......
a0004e60:	002a 0000 0010 0000 002a 0000 0011 0000     *.......*.......
a0004e70:	0028 0000 000c 0000 0028 0000 000d 0000     (.......(.......
a0004e80:	0028 0000 000e 0000 0028 0000 000f 0000     (.......(.......
a0004e90:	0029 0000 0010 0000 0029 0000 0011 0000     ).......).......
a0004ea0:	0027 0000 000c 0000 0027 0000 000d 0000     '.......'.......
a0004eb0:	0027 0000 000e 0000 0027 0000 000f 0000     '.......'.......
a0004ec0:	0027 0000 0010 0000 0027 0000 0011 0000     '.......'.......
a0004ed0:	0027 0000 000c 0000 0027 0000 000d 0000     '.......'.......
a0004ee0:	0027 0000 000e 0000 0027 0000 000f 0000     '.......'.......
a0004ef0:	0026 0000 0010 0000 0026 0000 0011 0000     &.......&.......
a0004f00:	0027 0000 000c 0000 0027 0000 000d 0000     '.......'.......
a0004f10:	0026 0000 000e 0000 0026 0000 000f 0000     &.......&.......
a0004f20:	0025 0000 0010 0000 0025 0000 0011 0000     %.......%.......
a0004f30:	0027 0000 000c 0000 0026 0000 000d 0000     '.......&.......
a0004f40:	0026 0000 000e 0000 0025 0000 000f 0000     &.......%.......
a0004f50:	0024 0000 0010 0000 0024 0000 0011 0000     $.......$.......
a0004f60:	0027 0000 000c 0000 0026 0000 000d 0000     '.......&.......
a0004f70:	0025 0000 000e 0000 0024 0000 000f 0000     %.......$.......
a0004f80:	0023 0000 0010 0000 0023 0000 0011 0000     #.......#.......
a0004f90:	0026 0000 000c 0000 0025 0000 000d 0000     &.......%.......
a0004fa0:	0024 0000 000e 0000 0023 0000 000f 0000     $.......#.......
a0004fb0:	0022 0000 0010 0000 0021 0000 0011 0000     ".......!.......
a0004fc0:	0026 0000 000c 0000 0025 0000 000d 0000     &.......%.......
a0004fd0:	0024 0000 000e 0000 0023 0000 000f 0000     $.......#.......
a0004fe0:	0022 0000 0010 0000 0020 0000 0010 0000     "....... .......
a0004ff0:	0026 0000 000c 0000 0025 0000 000d 0000     &.......%.......
a0005000:	0023 0000 000e 0000 0022 0000 000e 0000     #.......".......
a0005010:	0021 0000 000f 0000 001f 0000 0010 0000     !...............
a0005020:	0026 0000 000c 0000 0025 0000 000d 0000     &.......%.......
a0005030:	0023 0000 000e 0000 0022 0000 000e 0000     #.......".......
a0005040:	0020 0000 000f 0000 001f 0000 0010 0000      ...............
a0005050:	0026 0000 000c 0000 0024 0000 000d 0000     &.......$.......
a0005060:	0023 0000 000d 0000 0021 0000 000e 0000     #.......!.......
a0005070:	001f 0000 000e 0000 001e 0000 000f 0000     ................
a0005080:	0026 0000 000c 0000 0024 0000 000d 0000     &.......$.......
a0005090:	0022 0000 000d 0000 0021 0000 000e 0000     ".......!.......
a00050a0:	001f 0000 000e 0000 001d 0000 000f 0000     ................
a00050b0:	0026 0000 000c 0000 0024 0000 000c 0000     &.......$.......
a00050c0:	0022 0000 000d 0000 0020 0000 000d 0000     "....... .......
a00050d0:	001e 0000 000e 0000 001d 0000 000e 0000     ................
a00050e0:	0026 0000 000c 0000 0024 0000 000c 0000     &.......$.......
a00050f0:	0022 0000 000c 0000 0020 0000 000d 0000     "....... .......
a0005100:	001e 0000 000d 0000 001c 0000 000d 0000     ................
a0005110:	0026 0000 000c 0000 0024 0000 000c 0000     &.......$.......
a0005120:	0022 0000 000c 0000 0020 0000 000c 0000     "....... .......
a0005130:	001e 0000 000d 0000 001c 0000 000d 0000     ................
a0005140:	0026 0000 000c 0000 0024 0000 000c 0000     &.......$.......
a0005150:	0022 0000 000c 0000 0020 0000 000c 0000     "....... .......
a0005160:	001e 0000 000c 0000 001c 0000 000c 0000     ................
a0005170:	0026 0000 000b 0000 0024 0000 000b 0000     &.......$.......
a0005180:	0022 0000 000b 0000 0020 0000 000b 0000     "....... .......
a0005190:	001e 0000 000b 0000 001c 0000 000b 0000     ................
a00051a0:	0026 0000 000b 0000 0024 0000 000b 0000     &.......$.......
a00051b0:	0022 0000 000b 0000 0020 0000 000b 0000     "....... .......
a00051c0:	001e 0000 000b 0000 001c 0000 000b 0000     ................
a00051d0:	0026 0000 000b 0000 0024 0000 000b 0000     &.......$.......
a00051e0:	0022 0000 000b 0000 0020 0000 000b 0000     "....... .......
a00051f0:	001e 0000 000a 0000 001c 0000 000a 0000     ................
a0005200:	0026 0000 000b 0000 0024 0000 000b 0000     &.......$.......
a0005210:	0022 0000 000b 0000 0020 0000 000a 0000     "....... .......
a0005220:	001e 0000 000a 0000 001c 0000 000a 0000     ................
a0005230:	0026 0000 000b 0000 0024 0000 000b 0000     &.......$.......
a0005240:	0022 0000 000a 0000 0020 0000 000a 0000     "....... .......
a0005250:	001e 0000 0009 0000 001d 0000 0009 0000     ................
a0005260:	0026 0000 000b 0000 0024 0000 000b 0000     &.......$.......
a0005270:	0022 0000 000a 0000 0021 0000 000a 0000     ".......!.......
a0005280:	001f 0000 0009 0000 001d 0000 0009 0000     ................
a0005290:	0026 0000 000b 0000 0024 0000 000a 0000     &.......$.......
a00052a0:	0023 0000 000a 0000 0021 0000 0009 0000     #.......!.......
a00052b0:	001f 0000 0009 0000 001e 0000 0008 0000     ................
a00052c0:	0026 0000 000b 0000 0025 0000 000a 0000     &.......%.......
a00052d0:	0023 0000 0009 0000 0022 0000 0009 0000     #.......".......
a00052e0:	0020 0000 0008 0000 001f 0000 0007 0000      ...............
a00052f0:	0026 0000 000b 0000 0025 0000 000a 0000     &.......%.......
a0005300:	0023 0000 0009 0000 0022 0000 0009 0000     #.......".......
a0005310:	0021 0000 0008 0000 001f 0000 0007 0000     !...............
a0005320:	0026 0000 000b 0000 0025 0000 000a 0000     &.......%.......
a0005330:	0024 0000 0009 0000 0023 0000 0008 0000     $.......#.......
a0005340:	0022 0000 0007 0000 0020 0000 0007 0000     "....... .......
a0005350:	0027 0000 000b 0000 0026 0000 000a 0000     '.......&.......
a0005360:	0025 0000 0009 0000 0024 0000 0008 0000     %.......$.......
a0005370:	0023 0000 0007 0000 0022 0000 0006 0000     #.......".......
a0005380:	0027 0000 000b 0000 0026 0000 000a 0000     '.......&.......
a0005390:	0025 0000 0009 0000 0024 0000 0008 0000     %.......$.......
a00053a0:	0023 0000 0007 0000 0023 0000 0006 0000     #.......#.......
a00053b0:	0027 0000 000b 0000 0026 0000 000a 0000     '.......&.......
a00053c0:	0026 0000 0009 0000 0025 0000 0008 0000     &.......%.......
a00053d0:	0024 0000 0007 0000 0024 0000 0006 0000     $.......$.......
a00053e0:	0027 0000 000b 0000 0027 0000 000a 0000     '.......'.......
a00053f0:	0026 0000 0009 0000 0026 0000 0008 0000     &.......&.......
a0005400:	0025 0000 0007 0000 0025 0000 0006 0000     %.......%.......
a0005410:	0027 0000 000b 0000 0027 0000 000a 0000     '.......'.......
a0005420:	0027 0000 0009 0000 0027 0000 0008 0000     '.......'.......
a0005430:	0026 0000 0007 0000 0026 0000 0006 0000     &.......&.......

a0005440 <minute>:
a0005440:	0027 0000 000b 0000 0027 0000 000a 0000     '.......'.......
a0005450:	0027 0000 0009 0000 0027 0000 0008 0000     '.......'.......
a0005460:	0027 0000 0007 0000 0027 0000 0006 0000     '.......'.......
a0005470:	0027 0000 0005 0000 0027 0000 0004 0000     '.......'.......
a0005480:	0028 0000 000b 0000 0028 0000 000a 0000     (.......(.......
a0005490:	0028 0000 0009 0000 0028 0000 0008 0000     (.......(.......
a00054a0:	0029 0000 0007 0000 0029 0000 0006 0000     ).......).......
a00054b0:	0029 0000 0005 0000 0029 0000 0004 0000     ).......).......
a00054c0:	0028 0000 000b 0000 0028 0000 000a 0000     (.......(.......
a00054d0:	0029 0000 0009 0000 0029 0000 0008 0000     ).......).......
a00054e0:	002a 0000 0007 0000 002a 0000 0006 0000     *.......*.......
a00054f0:	002a 0000 0005 0000 002b 0000 0004 0000     *.......+.......
a0005500:	0028 0000 000b 0000 0029 0000 000a 0000     (.......).......
a0005510:	0029 0000 0009 0000 002a 0000 0008 0000     ).......*.......
a0005520:	002b 0000 0007 0000 002b 0000 0006 0000     +.......+.......
a0005530:	002c 0000 0005 0000 002c 0000 0004 0000     ,.......,.......
a0005540:	0028 0000 000b 0000 0029 0000 000a 0000     (.......).......
a0005550:	002a 0000 0009 0000 002b 0000 0008 0000     *.......+.......
a0005560:	002c 0000 0007 0000 002c 0000 0006 0000     ,.......,.......
a0005570:	002d 0000 0005 0000 002e 0000 0004 0000     -...............
a0005580:	0028 0000 000b 0000 0029 0000 000a 0000     (.......).......
a0005590:	002a 0000 0009 0000 002b 0000 0008 0000     *.......+.......
a00055a0:	002c 0000 0007 0000 002d 0000 0006 0000     ,.......-.......
a00055b0:	002e 0000 0005 0000 002f 0000 0005 0000     ......../.......
a00055c0:	0029 0000 000b 0000 002a 0000 000a 0000     ).......*.......
a00055d0:	002b 0000 0009 0000 002c 0000 0008 0000     +.......,.......
a00055e0:	002d 0000 0007 0000 002f 0000 0007 0000     -......./.......
a00055f0:	0030 0000 0006 0000 0031 0000 0005 0000     0.......1.......
a0005600:	0029 0000 000b 0000 002a 0000 000a 0000     ).......*.......
a0005610:	002c 0000 0009 0000 002d 0000 0009 0000     ,.......-.......
a0005620:	002e 0000 0008 0000 0030 0000 0007 0000     ........0.......
a0005630:	0031 0000 0006 0000 0032 0000 0006 0000     1.......2.......
a0005640:	0029 0000 000b 0000 002a 0000 000a 0000     ).......*.......
a0005650:	002c 0000 0009 0000 002d 0000 0009 0000     ,.......-.......
a0005660:	002f 0000 0008 0000 0030 0000 0007 0000     /.......0.......
a0005670:	0032 0000 0007 0000 0033 0000 0006 0000     2.......3.......
a0005680:	0029 0000 000b 0000 002b 0000 000a 0000     ).......+.......
a0005690:	002c 0000 000a 0000 002e 0000 0009 0000     ,...............
a00056a0:	0030 0000 0009 0000 0031 0000 0008 0000     0.......1.......
a00056b0:	0033 0000 0007 0000 0034 0000 0007 0000     3.......4.......
a00056c0:	0029 0000 000b 0000 002b 0000 000a 0000     ).......+.......
a00056d0:	002d 0000 000a 0000 002e 0000 0009 0000     -...............
a00056e0:	0030 0000 0009 0000 0032 0000 0008 0000     0.......2.......
a00056f0:	0034 0000 0008 0000 0035 0000 0007 0000     4.......5.......
a0005700:	0029 0000 000b 0000 002b 0000 000b 0000     ).......+.......
a0005710:	002d 0000 000a 0000 002f 0000 000a 0000     -......./.......
a0005720:	0031 0000 0009 0000 0032 0000 0009 0000     1.......2.......
a0005730:	0034 0000 0009 0000 0036 0000 0008 0000     4.......6.......
a0005740:	0029 0000 000b 0000 002b 0000 000b 0000     ).......+.......
a0005750:	002d 0000 000b 0000 002f 0000 000a 0000     -......./.......
a0005760:	0031 0000 000a 0000 0033 0000 000a 0000     1.......3.......
a0005770:	0035 0000 0009 0000 0037 0000 0009 0000     5.......7.......
a0005780:	0029 0000 000b 0000 002b 0000 000b 0000     ).......+.......
a0005790:	002d 0000 000b 0000 002f 0000 000b 0000     -......./.......
a00057a0:	0031 0000 000a 0000 0033 0000 000a 0000     1.......3.......
a00057b0:	0035 0000 000a 0000 0037 0000 000a 0000     5.......7.......
a00057c0:	0029 0000 000b 0000 002b 0000 000b 0000     ).......+.......
a00057d0:	002d 0000 000b 0000 002f 0000 000b 0000     -......./.......
a00057e0:	0031 0000 000b 0000 0033 0000 000b 0000     1.......3.......
a00057f0:	0035 0000 000b 0000 0037 0000 000b 0000     5.......7.......
a0005800:	002a 0000 000c 0000 002c 0000 000c 0000     *.......,.......
a0005810:	002e 0000 000c 0000 0030 0000 000c 0000     ........0.......
a0005820:	0032 0000 000c 0000 0034 0000 000c 0000     2.......4.......
a0005830:	0036 0000 000c 0000 0038 0000 000c 0000     6.......8.......
a0005840:	0029 0000 000c 0000 002b 0000 000c 0000     ).......+.......
a0005850:	002d 0000 000c 0000 002f 0000 000c 0000     -......./.......
a0005860:	0031 0000 000c 0000 0033 0000 000c 0000     1.......3.......
a0005870:	0035 0000 000c 0000 0037 0000 000c 0000     5.......7.......
a0005880:	0029 0000 000c 0000 002b 0000 000c 0000     ).......+.......
a0005890:	002d 0000 000c 0000 002f 0000 000c 0000     -......./.......
a00058a0:	0031 0000 000d 0000 0033 0000 000d 0000     1.......3.......
a00058b0:	0035 0000 000d 0000 0037 0000 000d 0000     5.......7.......
a00058c0:	0029 0000 000c 0000 002b 0000 000c 0000     ).......+.......
a00058d0:	002d 0000 000c 0000 002f 0000 000d 0000     -......./.......
a00058e0:	0031 0000 000d 0000 0033 0000 000d 0000     1.......3.......
a00058f0:	0035 0000 000e 0000 0037 0000 000e 0000     5.......7.......
a0005900:	0029 0000 000c 0000 002b 0000 000c 0000     ).......+.......
a0005910:	002d 0000 000d 0000 002f 0000 000d 0000     -......./.......
a0005920:	0031 0000 000e 0000 0032 0000 000e 0000     1.......2.......
a0005930:	0034 0000 000e 0000 0036 0000 000f 0000     4.......6.......
a0005940:	0029 0000 000c 0000 002b 0000 000d 0000     ).......+.......
a0005950:	002d 0000 000d 0000 002e 0000 000e 0000     -...............
a0005960:	0030 0000 000e 0000 0032 0000 000f 0000     0.......2.......
a0005970:	0034 0000 000f 0000 0035 0000 0010 0000     4.......5.......
a0005980:	0029 0000 000c 0000 002b 0000 000d 0000     ).......+.......
a0005990:	002c 0000 000d 0000 002e 0000 000e 0000     ,...............
a00059a0:	0030 0000 000e 0000 0031 0000 000f 0000     0.......1.......
a00059b0:	0033 0000 0010 0000 0034 0000 0010 0000     3.......4.......
a00059c0:	0029 0000 000c 0000 002a 0000 000d 0000     ).......*.......
a00059d0:	002c 0000 000e 0000 002d 0000 000e 0000     ,.......-.......
a00059e0:	002f 0000 000f 0000 0030 0000 0010 0000     /.......0.......
a00059f0:	0032 0000 0010 0000 0033 0000 0011 0000     2.......3.......
a0005a00:	0029 0000 000c 0000 002a 0000 000d 0000     ).......*.......
a0005a10:	002c 0000 000e 0000 002d 0000 000e 0000     ,.......-.......
a0005a20:	002e 0000 000f 0000 0030 0000 0010 0000     ........0.......
a0005a30:	0031 0000 0011 0000 0032 0000 0011 0000     1.......2.......
a0005a40:	0029 0000 000c 0000 002a 0000 000d 0000     ).......*.......
a0005a50:	002b 0000 000e 0000 002c 0000 000f 0000     +.......,.......
a0005a60:	002d 0000 0010 0000 002f 0000 0010 0000     -......./.......
a0005a70:	0030 0000 0011 0000 0031 0000 0012 0000     0.......1.......
a0005a80:	0028 0000 000c 0000 0029 0000 000d 0000     (.......).......
a0005a90:	002a 0000 000e 0000 002b 0000 000f 0000     *.......+.......
a0005aa0:	002c 0000 0010 0000 002d 0000 0011 0000     ,.......-.......
a0005ab0:	002e 0000 0012 0000 002f 0000 0012 0000     ......../.......
a0005ac0:	0028 0000 000c 0000 0029 0000 000d 0000     (.......).......
a0005ad0:	002a 0000 000e 0000 002b 0000 000f 0000     *.......+.......
a0005ae0:	002c 0000 0010 0000 002c 0000 0011 0000     ,.......,.......
a0005af0:	002d 0000 0012 0000 002e 0000 0013 0000     -...............
a0005b00:	0028 0000 000c 0000 0029 0000 000d 0000     (.......).......
a0005b10:	0029 0000 000e 0000 002a 0000 000f 0000     ).......*.......
a0005b20:	002b 0000 0010 0000 002b 0000 0011 0000     +.......+.......
a0005b30:	002c 0000 0012 0000 002c 0000 0013 0000     ,.......,.......
a0005b40:	0028 0000 000c 0000 0028 0000 000d 0000     (.......(.......
a0005b50:	0029 0000 000e 0000 0029 0000 000f 0000     ).......).......
a0005b60:	002a 0000 0010 0000 002a 0000 0011 0000     *.......*.......
a0005b70:	002a 0000 0012 0000 002b 0000 0013 0000     *.......+.......
a0005b80:	0028 0000 000c 0000 0028 0000 000d 0000     (.......(.......
a0005b90:	0028 0000 000e 0000 0028 0000 000f 0000     (.......(.......
a0005ba0:	0029 0000 0010 0000 0029 0000 0011 0000     ).......).......
a0005bb0:	0029 0000 0012 0000 0029 0000 0013 0000     ).......).......
a0005bc0:	0027 0000 000c 0000 0027 0000 000d 0000     '.......'.......
a0005bd0:	0027 0000 000e 0000 0027 0000 000f 0000     '.......'.......
a0005be0:	0027 0000 0010 0000 0027 0000 0011 0000     '.......'.......
a0005bf0:	0027 0000 0012 0000 0027 0000 0013 0000     '.......'.......
a0005c00:	0027 0000 000c 0000 0027 0000 000d 0000     '.......'.......
a0005c10:	0027 0000 000e 0000 0027 0000 000f 0000     '.......'.......
a0005c20:	0026 0000 0010 0000 0026 0000 0011 0000     &.......&.......
a0005c30:	0026 0000 0012 0000 0026 0000 0013 0000     &.......&.......
a0005c40:	0027 0000 000c 0000 0027 0000 000d 0000     '.......'.......
a0005c50:	0026 0000 000e 0000 0026 0000 000f 0000     &.......&.......
a0005c60:	0025 0000 0010 0000 0025 0000 0011 0000     %.......%.......
a0005c70:	0025 0000 0012 0000 0024 0000 0013 0000     %.......$.......
a0005c80:	0027 0000 000c 0000 0026 0000 000d 0000     '.......&.......
a0005c90:	0026 0000 000e 0000 0025 0000 000f 0000     &.......%.......
a0005ca0:	0024 0000 0010 0000 0024 0000 0011 0000     $.......$.......
a0005cb0:	0023 0000 0012 0000 0023 0000 0013 0000     #.......#.......
a0005cc0:	0027 0000 000c 0000 0026 0000 000d 0000     '.......&.......
a0005cd0:	0025 0000 000e 0000 0024 0000 000f 0000     %.......$.......
a0005ce0:	0023 0000 0010 0000 0023 0000 0011 0000     #.......#.......
a0005cf0:	0022 0000 0012 0000 0021 0000 0013 0000     ".......!.......
a0005d00:	0026 0000 000c 0000 0025 0000 000d 0000     &.......%.......
a0005d10:	0024 0000 000e 0000 0023 0000 000f 0000     $.......#.......
a0005d20:	0022 0000 0010 0000 0021 0000 0011 0000     ".......!.......
a0005d30:	0020 0000 0012 0000 001f 0000 0012 0000      ...............
a0005d40:	0026 0000 000c 0000 0025 0000 000d 0000     &.......%.......
a0005d50:	0024 0000 000e 0000 0023 0000 000f 0000     $.......#.......
a0005d60:	0022 0000 0010 0000 0020 0000 0010 0000     "....... .......
a0005d70:	001f 0000 0011 0000 001e 0000 0012 0000     ................
a0005d80:	0026 0000 000c 0000 0025 0000 000d 0000     &.......%.......
a0005d90:	0023 0000 000e 0000 0022 0000 000e 0000     #.......".......
a0005da0:	0021 0000 000f 0000 001f 0000 0010 0000     !...............
a0005db0:	001e 0000 0011 0000 001d 0000 0011 0000     ................
a0005dc0:	0026 0000 000c 0000 0025 0000 000d 0000     &.......%.......
a0005dd0:	0023 0000 000e 0000 0022 0000 000e 0000     #.......".......
a0005de0:	0020 0000 000f 0000 001f 0000 0010 0000      ...............
a0005df0:	001d 0000 0010 0000 001c 0000 0011 0000     ................
a0005e00:	0026 0000 000c 0000 0024 0000 000d 0000     &.......$.......
a0005e10:	0023 0000 000d 0000 0021 0000 000e 0000     #.......!.......
a0005e20:	001f 0000 000e 0000 001e 0000 000f 0000     ................
a0005e30:	001c 0000 0010 0000 001b 0000 0010 0000     ................
a0005e40:	0026 0000 000c 0000 0024 0000 000d 0000     &.......$.......
a0005e50:	0022 0000 000d 0000 0021 0000 000e 0000     ".......!.......
a0005e60:	001f 0000 000e 0000 001d 0000 000f 0000     ................
a0005e70:	001b 0000 000f 0000 001a 0000 0010 0000     ................
a0005e80:	0026 0000 000c 0000 0024 0000 000c 0000     &.......$.......
a0005e90:	0022 0000 000d 0000 0020 0000 000d 0000     "....... .......
a0005ea0:	001e 0000 000e 0000 001d 0000 000e 0000     ................
a0005eb0:	001b 0000 000e 0000 0019 0000 000f 0000     ................
a0005ec0:	0026 0000 000c 0000 0024 0000 000c 0000     &.......$.......
a0005ed0:	0022 0000 000c 0000 0020 0000 000d 0000     "....... .......
a0005ee0:	001e 0000 000d 0000 001c 0000 000d 0000     ................
a0005ef0:	001a 0000 000e 0000 0018 0000 000e 0000     ................
a0005f00:	0026 0000 000c 0000 0024 0000 000c 0000     &.......$.......
a0005f10:	0022 0000 000c 0000 0020 0000 000c 0000     "....... .......
a0005f20:	001e 0000 000d 0000 001c 0000 000d 0000     ................
a0005f30:	001a 0000 000d 0000 0018 0000 000d 0000     ................
a0005f40:	0026 0000 000c 0000 0024 0000 000c 0000     &.......$.......
a0005f50:	0022 0000 000c 0000 0020 0000 000c 0000     "....... .......
a0005f60:	001e 0000 000c 0000 001c 0000 000c 0000     ................
a0005f70:	001a 0000 000c 0000 0018 0000 000c 0000     ................
a0005f80:	0026 0000 000b 0000 0024 0000 000b 0000     &.......$.......
a0005f90:	0022 0000 000b 0000 0020 0000 000b 0000     "....... .......
a0005fa0:	001e 0000 000b 0000 001c 0000 000b 0000     ................
a0005fb0:	001a 0000 000b 0000 0018 0000 000b 0000     ................
a0005fc0:	0026 0000 000b 0000 0024 0000 000b 0000     &.......$.......
a0005fd0:	0022 0000 000b 0000 0020 0000 000b 0000     "....... .......
a0005fe0:	001e 0000 000b 0000 001c 0000 000b 0000     ................
a0005ff0:	001a 0000 000b 0000 0018 0000 000b 0000     ................
a0006000:	0026 0000 000b 0000 0024 0000 000b 0000     &.......$.......
a0006010:	0022 0000 000b 0000 0020 0000 000b 0000     "....... .......
a0006020:	001e 0000 000a 0000 001c 0000 000a 0000     ................
a0006030:	001a 0000 000a 0000 0018 0000 000a 0000     ................
a0006040:	0026 0000 000b 0000 0024 0000 000b 0000     &.......$.......
a0006050:	0022 0000 000b 0000 0020 0000 000a 0000     "....... .......
a0006060:	001e 0000 000a 0000 001c 0000 000a 0000     ................
a0006070:	001a 0000 0009 0000 0018 0000 0009 0000     ................
a0006080:	0026 0000 000b 0000 0024 0000 000b 0000     &.......$.......
a0006090:	0022 0000 000a 0000 0020 0000 000a 0000     "....... .......
a00060a0:	001e 0000 0009 0000 001d 0000 0009 0000     ................
a00060b0:	001b 0000 0009 0000 0019 0000 0008 0000     ................
a00060c0:	0026 0000 000b 0000 0024 0000 000b 0000     &.......$.......
a00060d0:	0022 0000 000a 0000 0021 0000 000a 0000     ".......!.......
a00060e0:	001f 0000 0009 0000 001d 0000 0009 0000     ................
a00060f0:	001b 0000 0008 0000 001a 0000 0008 0000     ................
a0006100:	0026 0000 000b 0000 0024 0000 000a 0000     &.......$.......
a0006110:	0023 0000 000a 0000 0021 0000 0009 0000     #.......!.......
a0006120:	001f 0000 0009 0000 001e 0000 0008 0000     ................
a0006130:	001c 0000 0007 0000 001b 0000 0007 0000     ................
a0006140:	0026 0000 000b 0000 0025 0000 000a 0000     &.......%.......
a0006150:	0023 0000 0009 0000 0022 0000 0009 0000     #.......".......
a0006160:	0020 0000 0008 0000 001f 0000 0007 0000      ...............
a0006170:	001d 0000 0007 0000 001c 0000 0006 0000     ................
a0006180:	0026 0000 000b 0000 0025 0000 000a 0000     &.......%.......
a0006190:	0023 0000 0009 0000 0022 0000 0009 0000     #.......".......
a00061a0:	0021 0000 0008 0000 001f 0000 0007 0000     !...............
a00061b0:	001e 0000 0006 0000 001d 0000 0006 0000     ................
a00061c0:	0026 0000 000b 0000 0025 0000 000a 0000     &.......%.......
a00061d0:	0024 0000 0009 0000 0023 0000 0008 0000     $.......#.......
a00061e0:	0022 0000 0007 0000 0020 0000 0007 0000     "....... .......
a00061f0:	001f 0000 0006 0000 001e 0000 0005 0000     ................
a0006200:	0027 0000 000b 0000 0026 0000 000a 0000     '.......&.......
a0006210:	0025 0000 0009 0000 0024 0000 0008 0000     %.......$.......
a0006220:	0023 0000 0007 0000 0022 0000 0006 0000     #.......".......
a0006230:	0021 0000 0005 0000 0020 0000 0005 0000     !....... .......
a0006240:	0027 0000 000b 0000 0026 0000 000a 0000     '.......&.......
a0006250:	0025 0000 0009 0000 0024 0000 0008 0000     %.......$.......
a0006260:	0023 0000 0007 0000 0023 0000 0006 0000     #.......#.......
a0006270:	0022 0000 0005 0000 0021 0000 0004 0000     ".......!.......
a0006280:	0027 0000 000b 0000 0026 0000 000a 0000     '.......&.......
a0006290:	0026 0000 0009 0000 0025 0000 0008 0000     &.......%.......
a00062a0:	0024 0000 0007 0000 0024 0000 0006 0000     $.......$.......
a00062b0:	0023 0000 0005 0000 0023 0000 0004 0000     #.......#.......
a00062c0:	0027 0000 000b 0000 0027 0000 000a 0000     '.......'.......
a00062d0:	0026 0000 0009 0000 0026 0000 0008 0000     &.......&.......
a00062e0:	0025 0000 0007 0000 0025 0000 0006 0000     %.......%.......
a00062f0:	0025 0000 0005 0000 0024 0000 0004 0000     %.......$.......
a0006300:	0027 0000 000b 0000 0027 0000 000a 0000     '.......'.......
a0006310:	0027 0000 0009 0000 0027 0000 0008 0000     '.......'.......
a0006320:	0026 0000 0007 0000 0026 0000 0006 0000     &.......&.......
a0006330:	0026 0000 0005 0000 0026 0000 0004 0000     &.......&.......
a0006340:	2020 2020 2020 2041 616d 646e 6c65 7262           A mandelbr
a0006350:	746f 7320 7465 6620 6172 7463 6c61 7620     ot set fractal v
a0006360:	6569 6577 2072 6e69 6220 6172 6e69 2a66     iewer in brainf*
a0006370:	2a2a 7720 6972 7474 6e65 6220 2079 7245     ** written by Er
a0006380:	6b69 4220 736f 616d 206e 2020 2020 2020     ik Bosman       
a0006390:	2b20 2b2b 2b2b 2b2b 2b2b 2b2b 2b2b 2d5b      +++++++++++++[-
a00063a0:	2b3e 3e2b 3e3e 2b2b 2b2b 3e2b 2b2b 2b3e     >++>>>+++++>++>+
a00063b0:	3c3c 3c3c 3c3c 3e5d 3e3e 3e3e 2b2b 2b2b     <<<<<<]>>>>>++++
a00063c0:	2b2b 2d3e 2d2d 3e3e 3e3e 3e3e 3e3e 3e3e     ++>--->>>>>>>>>>
a00063d0:	2b2b 2b2b 2b2b 2b2b 2b2b 2b2b 2b2b 5b2b     +++++++++++++++[
a00063e0:	205b 3e3e 3e3e 3e3e 3e3e 5d3e 5b2b 3c3c     [ >>>>>>>>>]+[<<
a00063f0:	3c3c 3c3c 3c3c 5d3c 3e3e 3e3e 3e3e 3e3e     <<<<<<<]>>>>>>>>
a0006400:	2d3e 2b5d 3e5b 3e3e 3e3e 3e3e 5b3e 5d2d     >-]+[>>>>>>>>[-]
a0006410:	5d3e 3c3c 3c3c 3c3c 3c3c 5b3c 3c3c 3c3c     >]<<<<<<<<<[<<<<
a0006420:	3c3c 3c3c 5d3c 3e3e 3e3e 3e3e 3e3e 2d5b     <<<<<]>>>>>>>>[-
a0006430:	2b5d 3c20 3c3c 3c3c 3c3c 2b2b 2b2b 5b2b     ]+ <<<<<<<+++++[
a0006440:	5b2d 3e2d 3e3e 3e3e 3e3e 3e3e 3c2b 3c3c     -[->>>>>>>>>+<<<
a0006450:	3c3c 3c3c 3c3c 3e5d 3e3e 3e3e 3e3e 3e3e     <<<<<<]>>>>>>>>>
a0006460:	3e5d 3e3e 3e3e 3e3e 3e2b 3e3e 3e3e 3e3e     ]>>>>>>>+>>>>>>>
a0006470:	3e3e 3e3e 3e3e 3e3e 3e3e 3e3e 3e3e 3e3e     >>>>>>>>>>>>>>>>
a0006480:	3e3e 203e 2b3e 3c3c 3c3c 3c3c 3c3c 3c3c     >>> >+<<<<<<<<<<
a0006490:	3c3c 3c3c 3c3c 5b3c 3c3c 3c3c 3c3c 3c3c     <<<<<<<[<<<<<<<<
a00064a0:	5d3c 3e3e 5b3e 5d2d 5b2b 3e3e 3e3e 3e3e     <]>>>[-]+[>>>>>>
a00064b0:	3e5b 3e3e 3e3e 3e3e 2d5b 3e5d 5d3e 3c3c     [>>>>>>>[-]>>]<<
a00064c0:	3c3c 3c3c 3c3c 5b3c 3c3c 3c3c 3c3c 3c3c     <<<<<<<[<<<<<<<<
a00064d0:	5d3c 3e3e 3e20 3e3e 3e3e 2d5b 2b5d 3c3c     <]>> >>>>>[-]+<<
a00064e0:	3c3c 3c3c 2b2b 2b2b 2d5b 2d5b 3e3e 3e3e     <<<<++++[-[->>>>
a00064f0:	3e3e 3e3e 2b3e 3c3c 3c3c 3c3c 3c3c 5d3c     >>>>>+<<<<<<<<<]
a0006500:	3e3e 3e3e 3e3e 3e3e 5d3e 3e3e 3e3e 3e3e     >>>>>>>>>]>>>>>>
a0006510:	3c2b 3c3c 3c3c 2b3c 2b2b 2b2b 2b2b 2d5b     +<<<<<<+++++++[-
a0006520:	2d5b 3e3e 203e 3e3e 3e3e 3e3e 3c2b 3c3c     [->>> >>>>>>+<<<
a0006530:	3c3c 3c3c 3c3c 3e5d 3e3e 3e3e 3e3e 3e3e     <<<<<<]>>>>>>>>>
a0006540:	3e5d 3e3e 3e3e 2b3e 3c3c 3c3c 3c3c 3c3c     ]>>>>>>+<<<<<<<<
a0006550:	3c3c 3c3c 3c3c 3c3c 3c5b 3c3c 3c3c 3c3c     <<<<<<<<[<<<<<<<
a0006560:	3c3c 3e5d 3e3e 5b5b 5d2d 3e3e 3e3e 3e3e     <<]>>>[[-]>>>>>>
a0006570:	3e5b 3e3e 3e3e 3e20 5b3e 3c2d 3c3c 3c3c     [>>>>> >>[-<<<<<
a0006580:	2b3c 3e3e 3e3e 3e3e 3c5d 3c3c 3c3c 5b3c     <+>>>>>>]<<<<<<[
a0006590:	3e2d 3e3e 3e3e 2b3e 3c3c 3c2b 3c3c 3c2b     ->>>>>>+<<+<<<+<
a00065a0:	3e5d 3e3e 3e3e 3e3e 5d3e 3c3c 3c3c 3c3c     ]>>>>>>>>]<<<<<<
a00065b0:	3c3c 5b3c 3c3c 3c3c 3c3c 3c3c 5d3c 3e3e     <<<[<<<<<<<<<]>>
a00065c0:	3e3e 3e3e 3e3e 203e 3e5b 3e3e 3e3e 3e3e     >>>>>>> [>>>>>>>
a00065d0:	5b3e 3c2d 3c3c 3c3c 3c3c 3e2b 3e3e 3e3e     >[-<<<<<<<+>>>>>
a00065e0:	3e3e 3c5d 3c3c 3c3c 3c3c 2d5b 3e3e 3e3e     >>]<<<<<<<[->>>>
a00065f0:	3e3e 2b3e 3c3c 3c2b 3c3c 3c2b 5d3c 3e3e     >>>+<<+<<<+<<]>>
a0006600:	3e3e 3e3e 3e3e 3c5d 3c3c 3c3c 3c3c 3c3c     >>>>>>]<<<<<<<<<
a0006610:	3c5b 3c3c 3c3c 3c3c 3c20 5d3c 3e3e 3e3e     [<<<<<<< <<]>>>>
a0006620:	3e3e 5b3e 3c2d 3c3c 3c3c 3c3c 3e2b 3e3e     >>>[-<<<<<<<+>>>
a0006630:	3e3e 3e3e 3c5d 3c3c 3c3c 3c3c 2d5b 3e3e     >>>>]<<<<<<<[->>
a0006640:	3e3e 3e3e 2b3e 3c3c 3c2b 3c3c 3c3c 3e5d     >>>>>+<<+<<<<<]>
a0006650:	3e3e 3e3e 3e3e 3e3e 2b2b 2b2b 2b2b 2b2b     >>>>>>>>++++++++
a0006660:	2b2b 2b2b 2b2b 5b2b 205b 3e3e 3e3e 3e3e     +++++++[[ >>>>>>
a0006670:	3e3e 5d3e 3e2b 2d5b 3e5d 2d5b 3e5d 2d5b     >>>]+>[-]>[-]>[-
a0006680:	3e5d 2d5b 3e5d 2d5b 3e5d 2d5b 3e5d 2d5b     ]>[-]>[-]>[-]>[-
a0006690:	3e5d 2d5b 3e5d 2d5b 3c5d 3c3c 3c3c 3c3c     ]>[-]>[-]<<<<<<<
a00066a0:	3c3c 3c5b 3c3c 3c3c 3c3c 3c3c 3e5d 3e3e     <<[<<<<<<<<<]>>>
a00066b0:	3e3e 3e3e 3e3e 5d2d 5b2b 3e20 3e2b 3e3e     >>>>>>-]+[ >+>>>
a00066c0:	3e3e 3e3e 5d3e 3c3c 3c3c 3c3c 3c3c 5b3c     >>>>>]<<<<<<<<<[
a00066d0:	3c3c 3c3c 3c3c 3c3c 5d3c 3e3e 3e3e 3e3e     <<<<<<<<<]>>>>>>
a00066e0:	3e3e 5b3e 2d3e 3e3e 3e3e 2d5b 3c3c 3c3c     >>>[>->>>>[-<<<<
a00066f0:	3e2b 3e3e 5d3e 3c3c 3c3c 2d5b 3e3e 3e3e     +>>>>]<<<<[->>>>
a0006700:	3c2b 3c3c 3c3c 2d5b 3e3e 205b 3c2d 2b3c     +<<<<<[->>[ -<<+
a0006710:	3e3e 3c5d 5b3c 3e2d 2b3e 3e3e 3c2b 3c3c     >>]<<[->>+>>+<<<
a0006720:	5d3c 3e2b 3e3e 3e3e 3e3e 3e3e 3c5d 3c3c     <]+>>>>>>>>>]<<<
a0006730:	3c3c 3c3c 5b3c 3c3c 3c3c 3c3c 3c3c 5d3c     <<<<<[<<<<<<<<<]
a0006740:	3e5d 3e3e 3e3e 3e3e 3e3e 3e5b 3e3e 3e3e     ]>>>>>>>>>[>>>>>
a0006750:	3e3e 3e3e 3c5d 3c3c 3c3c 3c3c 3c20 5b3c     >>>>]<<<<<<< <<[
a0006760:	5b3e 3e2d 3e3e 3e3e 3e3e 3e3e 3c2b 3c3c     >[->>>>>>>>>+<<<
a0006770:	3c3c 3c3c 3c3c 3c5d 3c3c 3c3c 3c3c 3c3c     <<<<<<]<<<<<<<<<
a0006780:	5d3c 5b3e 3e2d 3e3e 3e3e 3e3e 3e3e 3c2b     <]>[->>>>>>>>>+<
a0006790:	3c3c 3c3c 3c3c 3c3c 3c5d 3e2b 3e3e 3e3e     <<<<<<<<]<+>>>>>
a00067a0:	3e3e 5d3e 3c3c 3c3c 3c3c 3c3c 203c 3e5b     >>>]<<<<<<<<< [>
a00067b0:	2d5b 3c5d 3e2d 3e3e 5b3e 3c2d 3c3c 2b3c     [-]<->>>>[-<<<<+
a00067c0:	5b3e 2d3c 2d3e 3c3c 3c3c 3c3c 3e2b 3e3e     >[<->-<<<<<<+>>>
a00067d0:	3e3e 5d3e 5b3c 3e2d 3c2b 3e5d 3e3e 5d3e     >>>]<[->+<]>>>>]
a00067e0:	3c3c 5b3c 3e2d 3e3e 3c2b 3c3c 3c5d 3c2b     <<<[->>>+<<<]<+<
a00067f0:	3c3c 3c3c 3c3c 3c3c 3e5d 3e3e 3e3e 3e20     <<<<<<<<]>>>>> >
a0006800:	3e3e 5b3e 2b3e 3e3e 3e3e 3e3e 3e3e 3c5d     >>>[>+>>>>>>>>]<
a0006810:	3c3c 3c3c 3c3c 3c3c 3c5b 3c3c 3c3c 3c3c     <<<<<<<<[<<<<<<<
a0006820:	3c3c 3e5d 3e3e 3e3e 3e3e 3e3e 3e5b 3e2d     <<]>>>>>>>>>[>->
a0006830:	3e3e 3e3e 2d5b 3c3c 3c3c 2b3c 3e3e 3e3e     >>>>[-<<<<<+>>>>
a0006840:	5d3e 3c3c 3c3c 5b3c 3e2d 3e3e 3e3e 202b     >]<<<<<[->>>>>+ 
a0006850:	3c3c 3c3c 3c3c 2d5b 3e3e 5b3e 3c2d 3c3c     <<<<<<[->>>[-<<<
a0006860:	3e2b 3e3e 3c5d 3c3c 2d5b 3e3e 2b3e 2b3e     +>>>]<<<[->>>+>+
a0006870:	3c3c 3c3c 2b5d 3e3e 3e3e 3e3e 3e3e 5d3e     <<<<]+>>>>>>>>>]
a0006880:	3c3c 3c3c 3c3c 3c3c 3c5b 3c3c 3c3c 3c3c     <<<<<<<<[<<<<<<<
a0006890:	3c3c 5d5d 3e3e 3e3e 3e3e 3e3e 5b3e 3e3e     <<]]>>>>>>>>>[>>
a00068a0:	3e20 3e3e 3e3e 3e3e 3c5d 3c3c 3c3c 3c3c      >>>>>>>]<<<<<<<
a00068b0:	3c3c 3e5b 5b3e 3e2d 3e3e 3e3e 3e3e 3e3e     <<[>>[->>>>>>>>>
a00068c0:	3c2b 3c3c 3c3c 3c3c 3c3c 3c5d 3c3c 3c3c     +<<<<<<<<<]<<<<<
a00068d0:	3c3c 3c3c 3c3c 3e5d 5b3e 3e2d 3e3e 3e3e     <<<<<<]>>[->>>>>
a00068e0:	3e3e 3e3e 3c2b 3c3c 3c3c 3c3c 3c3c 3c5d     >>>>+<<<<<<<<<]<
a00068f0:	203c 3e2b 3e3e 3e3e 3e3e 5d3e 3c3c 3c3c     < +>>>>>>>>]<<<<
a0006900:	3c3c 3c3c 5b3c 5b3e 5d2d 2d3c 3e3e 3e3e     <<<<<[>[-]<->>>>
a0006910:	2d5b 3c3c 3c3c 3e2b 3c5b 3e2d 3c2d 3c3c     [-<<<<+>[<->-<<<
a0006920:	3c3c 2b3c 3e3e 3e3e 3e3e 3c5d 2d5b 2b3e     <<<+>>>>>>]<[->+
a0006930:	5d3c 3e3e 3e3e 3c5d 3c3c 2d5b 3e3e 2b3e     <]>>>>]<<<[->>>+
a0006940:	3c3c 3c20 3c5d 3c2b 3c3c 3c3c 3c3c 3c3c     << <]<+<<<<<<<<<
a0006950:	3e5d 3e3e 3e3e 3e3e 3e3e 3e5b 3e3e 5b3e     ]>>>>>>>>>[>>>>[
a0006960:	3c2d 3c3c 3c3c 3c3c 3c3c 3c3c 3c3c 3c3c     -<<<<<<<<<<<<<<<
a0006970:	3c3c 3c3c 3c3c 3c3c 3c3c 3c3c 3c3c 3c3c     <<<<<<<<<<<<<<<<
a0006980:	3c3c 3c3c 2b3c 3e3e 3e3e 3e3e 3e3e 3e3e     <<<<<+>>>>>>>>>>
a0006990:	3e3e 203e 3e3e 3e3e 3e3e 3e3e 3e3e 3e3e     >>> >>>>>>>>>>>>
a00069a0:	3e3e 3e3e 3e3e 3e3e 3e3e 5d3e 3e3e 3e3e     >>>>>>>>>>>]>>>>
a00069b0:	5d3e 3c3c 3c3c 3c3c 3c3c 5b3c 3c3c 3c3c     >]<<<<<<<<<[<<<<
a00069c0:	3c3c 3c3c 5d3c 3e3e 3e3e 3e3e 3e3e 2b3e     <<<<<]>>>>>>>>>+
a00069d0:	2b2b 2b2b 2b2b 2b2b 2b2b 2b2b 2b2b 5b5b     ++++++++++++++[[
a00069e0:	3e3e 3e3e 3e20 3e3e 3e3e 3c5d 3c3c 3c3c     >>>> >>>>>]<<<<<
a00069f0:	3c3c 3c3c 3c2d 3c3c 3c3c 3c3c 3c3c 3c5b     <<<<-<<<<<<<<<[<
a0006a00:	3c3c 3c3c 3c3c 3c3c 3e5d 3e3e 3e3e 3e3e     <<<<<<<<]>>>>>>>
a0006a10:	3e3e 5d2d 3e2b 3e3e 3e3e 3e3e 3e3e 3e3e     >>-]+>>>>>>>>>>>
a0006a20:	3e3e 3e3e 3e3e 3e3e 3e3e 3c2b 3c3c 3c5b     >>>>>>>>>>+<<<[<
a0006a30:	3c3c 3c3c 203c 3c3c 5d3c 3e3e 3e3e 3e3e     <<<<< <<<]>>>>>>
a0006a40:	3e3e 5b3e 3e3e 5b3e 3c2d 3c3c 3e2d 3e3e     >>>[>>>[-<<<->>>
a0006a50:	2b5d 3c3c 5b3c 3e2d 3e3e 3e2d 2d5b 3c3c     ]+<<<[->>>->[-<<
a0006a60:	3c3c 3e2b 3e3e 5d3e 3c3c 3c3c 2d5b 3e3e     <<+>>>>]<<<<[->>
a0006a70:	3e3e 3c2b 3c3c 3c3c 3c3c 3c3c 3c3c 3c3c     >>+<<<<<<<<<<<<<
a0006a80:	3c5b 3c3c 3c3c 3c20 3c3c 5d3c 3e3e 3e3e     [<<<<< <<<<]>>>>
a0006a90:	2d5b 2b5d 3e3e 3e3e 5b3e 3e3e 3e3e 3e3e     [-]+>>>>>[>>>>>>
a0006aa0:	3e3e 5d3e 2b3e 5d3c 2b5d 3e3e 3e3e 2d5b     >>>]>+<]]+>>>>[-
a0006ab0:	3c3c 3c3c 3e2d 3e3e 5d3e 3c2b 3c3c 5b3c     <<<<->>>>]+<<<<[
a0006ac0:	3e2d 3e3e 2d3e 5b3c 3c2d 3c3c 3e2b 3e3e     ->>>>-<[-<<<+>>>
a0006ad0:	3c5d 3c3c 2d5b 203e 3e3e 3c2b 3c3c 3c3c     ]<<<[-> >>+<<<<<
a0006ae0:	3c3c 3c3c 3c3c 5b3c 3c3c 3c3c 3c3c 3c3c     <<<<<<<[<<<<<<<<
a0006af0:	5d3c 3e3e 5b3e 5d2d 3e2b 3e3e 3e3e 5b3e     <]>>>[-]+>>>>>>[
a0006b00:	3e3e 3e3e 3e3e 3e3e 5d3e 5b3e 5d2d 3c2b     >>>>>>>>>]>[-]+<
a0006b10:	5d5d 3e2b 2d5b 5b3c 3e3e 3e3e 3e3e 3e3e     ]]+>[-<[>>>>>>>>
a0006b20:	5d3e 3c3c 3c3c 3c3c 3c20 5d3c 3e3e 3e3e     >]<<<<<< <<]>>>>
a0006b30:	3e3e 3e3e 3c5d 3c3c 3c3c 3c3c 3c3c 3c5b     >>>>]<<<<<<<<<[<
a0006b40:	3c3c 3c3c 3c3c 3c3c 3c5d 3c3c 3c3c 3c3c     <<<<<<<<]<<<<<<<
a0006b50:	2d5b 2b3e 3e3e 2d3e 3c3c 3c3c 3e5d 3e3e     [->+>>>-<<<<]>>>
a0006b60:	3e3e 3e3e 3e3e 2b2b 2b2b 2b2b 2b2b 2b2b     >>>>>>++++++++++
a0006b70:	2b2b 2b2b 2b2b 2b2b 202b 2b2b 2b2b 2b2b     +++++++++ ++++++
a0006b80:	3e2b 5b3e 3c2d 3c3c 2b3c 3e3e 3e3e 3c5d     +>>[-<<<<+>>>>]<
a0006b90:	3c3c 5b3c 3e2d 3e3e 2b3e 3c3c 2d5b 3c5d     <<<[->>>>+<<[-]<
a0006ba0:	5d3c 3e3e 3c5b 3c3c 3c3c 3c3c 3c2b 2d5b     <]>>[<<<<<<<+<[-
a0006bb0:	2b3c 3e3e 3e3e 3c2b 5b3c 5d2d 3e5d 2d5b     <+>>>>+<<[-]]>[-
a0006bc0:	3c3c 2d5b 2b3e 3e3e 2d3e 3c20 3c3c 5d3c     <<[->+>>>- <<<<]
a0006bd0:	3e3e 5d3e 3e3e 3e3e 3e3e 3e3e 3e3e 3e3e     >>>]>>>>>>>>>>>>
a0006be0:	5b3e 3e3e 2d5b 3e5d 2d5b 3e5d 2d5b 3e5d     >[>>[-]>[-]>[-]>
a0006bf0:	3e3e 3e3e 3c5d 3c3c 3c3c 3c3c 3c3c 3c5b     >>>>]<<<<<<<<<[<
a0006c00:	3c3c 3c3c 3c3c 3c3c 3e5d 3e3e 2d5b 3e5d     <<<<<<<<]>>>[-]>
a0006c10:	3e3e 3e3e 5b3e 3e3e 3e3e 203e 2d5b 3c3c     >>>>>[>>>>> [-<<
a0006c20:	3c3c 3e2b 3e3e 5d3e 3c3c 3c3c 2d5b 3e3e     <<+>>>>]<<<<[->>
a0006c30:	3e3e 3c2b 3c3c 3c2b 3e5d 3e3e 3e3e 3e3e     >>+<<<+<]>>>>>>>
a0006c40:	5d3e 3c3c 3c3c 3c3c 3c3c 5b3c 3c3c 3c3c     >]<<<<<<<<<[<<<<
a0006c50:	3c3c 3c3c 5d3c 3e3e 3e3e 3e3e 3e3e 5b3e     <<<<<]>>>>>>>>>[
a0006c60:	3e3e 2d5b 3c3c 3c3c 3c3c 3c3c 3c20 3e2b     >>[-<<<<<<<< <+>
a0006c70:	3e3e 3e3e 3e3e 3e3e 3e5d 3e3e 3e3e 3e3e     >>>>>>>>]>>>>>>>
a0006c80:	3c5d 3c3c 3c3c 3c3c 3c3c 3c5b 3c3c 3c3c     ]<<<<<<<<<[<<<<<
a0006c90:	3c3c 3c3c 3e5d 3e3e 3e3e 3e3e 3e3e 2b2b     <<<<]>>>>>>>>>++
a0006ca0:	2b2b 2b2b 2b2b 2b2b 2b2b 2b2b 5b2b 3e5b     +++++++++++++[[>
a0006cb0:	3e3e 3e3e 3e3e 3e3e 2b5d 5b3e 202d 3e5d     >>>>>>>>]+>[- ]>
a0006cc0:	2d5b 3e5d 2d5b 3e5d 2d5b 3e5d 2d5b 3e5d     [-]>[-]>[-]>[-]>
a0006cd0:	2d5b 3e5d 2d5b 3e5d 2d5b 3e5d 2d5b 3c5d     [-]>[-]>[-]>[-]<
a0006ce0:	3c3c 3c3c 3c3c 3c3c 3c5b 3c3c 3c3c 3c3c     <<<<<<<<[<<<<<<<
a0006cf0:	3c3c 3e5d 3e3e 3e3e 3e3e 3e3e 5d2d 5b2b     <<]>>>>>>>>>-]+[
a0006d00:	2b3e 3e3e 3e3e 3e3e 3e3e 3c5d 3c3c 3c20     >+>>>>>>>>]<<< <
a0006d10:	3c3c 3c3c 5b3c 3c3c 3c3c 3c3c 3c3c 5d3c     <<<<<[<<<<<<<<<]
a0006d20:	3e3e 3e3e 3e3e 3e3e 5b3e 2d3e 3e3e 3e3e     >>>>>>>>>[>->>>>
a0006d30:	5b3e 3c2d 3c3c 3c3c 3e2b 3e3e 3e3e 3c5d     >[-<<<<<+>>>>>]<
a0006d40:	3c3c 3c3c 2d5b 3e3e 3e3e 2b3e 3c3c 3c3c     <<<<[->>>>>+<<<<
a0006d50:	3c3c 2d5b 3e3e 2d5b 3c3c 3e2b 5d3e 203c     <<[->>[-<<+>>]< 
a0006d60:	5b3c 3e2d 2b3e 2b3e 3c3c 5d3c 3e2b 3e3e     <[->>+>+<<<]+>>>
a0006d70:	3e3e 3e3e 3e3e 3c5d 3c3c 3c3c 3c3c 5b3c     >>>>>>]<<<<<<<<[
a0006d80:	3c3c 3c3c 3c3c 3c3c 5d3c 3e5d 3e3e 3e3e     <<<<<<<<<]]>>>>>
a0006d90:	3e3e 3e3e 3e5b 3e3e 3e3e 3e3e 3e3e 3c5d     >>>>[>>>>>>>>>]<
a0006da0:	3c3c 3c3c 3c3c 3c3c 3e5b 2d5b 3e3e 3e3e     <<<<<<<<[>[->>>>
a0006db0:	3e20 3e3e 3e3e 3c2b 3c3c 3c3c 3c3c 3c3c      >>>>>+<<<<<<<<<
a0006dc0:	3c5d 3c3c 3c3c 3c3c 3c3c 5d3c 5b3e 3e2d     ]<<<<<<<<<<]>[->
a0006dd0:	3e3e 3e3e 3e3e 3e3e 3c2b 3c3c 3c3c 3c3c     >>>>>>>>+<<<<<<<
a0006de0:	3c3c 3c5d 3e2b 3e3e 3e3e 3e3e 5d3e 3c3c     <<]<+>>>>>>>>]<<
a0006df0:	3c3c 3c3c 3c3c 5b3c 5b3e 5d2d 2d3c 3e3e     <<<<<<<[>[-]<->>
a0006e00:	203e 2d5b 3c3c 2b3c 5b3e 2d3c 2d3e 3c3c     > [-<<<+>[<->-<<
a0006e10:	3c3c 3c3c 2b3c 3e3e 3e3e 3e3e 5d3e 5b3c     <<<<<+>>>>>>>]<[
a0006e20:	3e2d 3c2b 3e5d 3e3e 3c5d 5b3c 3e2d 2b3e     ->+<]>>>]<<[->>+
a0006e30:	3c3c 3c5d 3c2b 3c3c 3c3c 3c3c 3c3c 3e5d     <<]<+<<<<<<<<<]>
a0006e40:	3e3e 3e3e 3e3e 3e3e 3e5b 3e3e 3e3e 5b3e     >>>>>>>>[>>>>>>[
a0006e50:	3c2d 3c20 3c3c 2b3c 3e3e 3e3e 5d3e 3c3c     -< <<<<+>>>>>]<<
a0006e60:	3c3c 5b3c 3e2d 3e3e 3e3e 3c2b 3c3c 2b3c     <<<[->>>>>+<<<<+
a0006e70:	5d3c 3e3e 3e3e 3e3e 3e3e 3c5d 3c3c 3c3c     <]>>>>>>>>]<<<<<
a0006e80:	3c3c 3c3c 3c5b 3c3c 3c3c 3c3c 3c3c 3e5d     <<<<[<<<<<<<<<]>
a0006e90:	3e3e 3e3e 3e3e 3e3e 3e5b 3e2b 3e3e 3e3e     >>>>>>>>[>+>>>>>
a0006ea0:	3e3e 203e 3c5d 3c3c 3c3c 3c3c 3c3c 3c5b     >>> ]<<<<<<<<<[<
a0006eb0:	3c3c 3c3c 3c3c 3c3c 3e5d 3e3e 3e3e 3e3e     <<<<<<<<]>>>>>>>
a0006ec0:	3e3e 3e5b 3e2d 3e3e 3e3e 2d5b 3c3c 3c3c     >>[>->>>>>[-<<<<
a0006ed0:	2b3c 3e3e 3e3e 5d3e 3c3c 3c3c 5b3c 3e2d     <+>>>>>]<<<<<[->
a0006ee0:	3e3e 3e3e 3c2b 3c3c 3c3c 5b3c 3e2d 5b3e     >>>>+<<<<<<[->>[
a0006ef0:	3c2d 2b3c 3e20 5d3e 3c3c 2d5b 3e3e 3e2b     -<<+ >>]<<[->>+>
a0006f00:	2b3e 3c3c 3c3c 2b5d 3e3e 3e3e 3e3e 3e3e     >+<<<<]+>>>>>>>>
a0006f10:	5d3e 3c3c 3c3c 3c3c 3c3c 3c5b 3c3c 3c3c     >]<<<<<<<<[<<<<<
a0006f20:	3c3c 3c3c 5d5d 3e3e 3e3e 3e3e 3e3e 5b3e     <<<<]]>>>>>>>>>[
a0006f30:	3e3e 3e3e 3e3e 3e3e 5d3e 3c3c 3c3c 3c3c     >>>>>>>>>]<<<<<<
a0006f40:	3c3c 5b3c 203e 2d5b 3e3e 3e3e 3e3e 3e3e     <<<[> [->>>>>>>>
a0006f50:	2b3e 3c3c 3c3c 3c3c 3c3c 5d3c 3c3c 3c3c     >+<<<<<<<<<]<<<<
a0006f60:	3c3c 3c3c 3c3c 3e5d 2d5b 3e3e 3e3e 3e3e     <<<<<<]>[->>>>>>
a0006f70:	3e3e 2b3e 3c3c 3c3c 3c3c 3c3c 5d3c 2b3c     >>>+<<<<<<<<<]<+
a0006f80:	3e3e 3e3e 3e3e 3e3e 3c5d 3c3c 3c3c 3c3c     >>>>>>>>]<<<<<<<
a0006f90:	3c3c 3e5b 2d5b 5d20 2d3c 3e3e 3e3e 2d5b     <<[>[- ]<->>>>[-
a0006fa0:	3c3c 3c3c 3e2b 3c5b 3e2d 3c2d 3c3c 3c3c     <<<<+>[<->-<<<<<
a0006fb0:	2b3c 3e3e 3e3e 3e3e 3c5d 2d5b 2b3e 5d3c     <+>>>>>>]<[->+<]
a0006fc0:	3e3e 3e3e 3c5d 3c3c 2d5b 3e3e 2b3e 3c3c     >>>>]<<<[->>>+<<
a0006fd0:	5d3c 2b3c 3c3c 3c3c 3c3c 3c3c 5d3c 3e3e     <]<+<<<<<<<<<]>>
a0006fe0:	3e3e 3e3e 3e3e 203e 3e5b 3e3e 5b3e 3c2d     >>>>>>> [>>>>[-<
a0006ff0:	3c3c 3c3c 3c3c 3c3c 3c3c 3c3c 3c3c 3c3c     <<<<<<<<<<<<<<<<
a0007000:	3c3c 3c3c 3c3c 3c3c 3c3c 3c3c 3c3c 3c3c     <<<<<<<<<<<<<<<<
a0007010:	3c3c 2b3c 3e3e 3e3e 3e3e 3e3e 3e3e 3e3e     <<<+>>>>>>>>>>>>
a0007020:	3e3e 3e3e 3e3e 3e3e 3e3e 3e3e 3e3e 3e3e     >>>>>>>>>>>>>>>>
a0007030:	3e3e 3e3e 3e3e 3e3e 5d20 3e3e 3e3e 5d3e     >>>>>>>> ]>>>>>]
a0007040:	3c3c 3c3c 3c3c 3c3c 5b3c 3c3c 3c3c 3c3c     <<<<<<<<<[<<<<<<
a0007050:	3c3c 5d3c 3e3e 3e3e 3e3e 3e3e 5b3e 3e3e     <<<]>>>>>>>>>[>>
a0007060:	5b3e 3c2d 3c3c 3c3c 3c3c 3c3c 3c3c 3c3c     >[-<<<<<<<<<<<<<
a0007070:	3c3c 3c3c 3c3c 3c3c 3c3c 3c3c 3c3c 3c3c     <<<<<<<<<<<<<<<<
a0007080:	3c3c 3c3c 3c3c 2b3c 203e 3e3e 3e3e 3e3e     <<<<<<<+> >>>>>>
a0007090:	3e3e 3e3e 3e3e 3e3e 3e3e 3e3e 3e3e 3e3e     >>>>>>>>>>>>>>>>
a00070a0:	3e3e 3e3e 3e3e 3e3e 3e3e 3e3e 5d3e 3e3e     >>>>>>>>>>>>>]>>
a00070b0:	3e3e 3e3e 3c5d 3c3c 3c3c 3c3c 3c3c 3c5b     >>>>]<<<<<<<<<[<
a00070c0:	3c3c 3c3c 3c3c 3c3c 3e5d 3e3e 3e3e 3e3e     <<<<<<<<]>>>>>>>
a00070d0:	3e3e 2b2b 2b2b 2b2b 2b2b 2b20 2b2b 2b2b     >>++++++++ +++++
a00070e0:	2b2b 5b5b 3e3e 3e3e 3e3e 3e3e 5d3e 3c3c     ++[[>>>>>>>>>]<<
a00070f0:	3c3c 3c3c 3c3c 2d3c 3c3c 3c3c 3c3c 3c3c     <<<<<<<-<<<<<<<<
a0007100:	5b3c 3c3c 3c3c 3c3c 3c3c 5d3c 3e3e 3e3e     <[<<<<<<<<<]>>>>
a0007110:	3e3e 3e3e 2d3e 2b5d 3e5b 3e3e 3e3e 3e3e     >>>>>-]+[>>>>>>>
a0007120:	5b3e 3c2d 3c3c 3c3c 3c3c 202b 3e3e 3e3e     >[-<<<<<<<+ >>>>
a0007130:	3e3e 5d3e 3c3c 3c3c 3c3c 5b3c 3e2d 3e3e     >>>]<<<<<<<[->>>
a0007140:	3e3e 3e3e 3c2b 3c3c 3c3c 2b3c 5d3c 3e3e     >>>>+<<<<<<+<]>>
a0007150:	3e3e 3e3e 3e3e 3c5d 3c3c 3c3c 3c3c 3c3c     >>>>>>]<<<<<<<<<
a0007160:	3c5b 3c3c 3c3c 3c3c 3c3c 3e5d 3e3e 3e3e     [<<<<<<<<<]>>>>>
a0007170:	3e3e 3e3e 3e5b 3e3e 3e3e 5b3e 2d20 3e5d     >>>>[>>>>>>[ -]>
a0007180:	3e3e 3c5d 3c3c 3c3c 3c3c 3c3c 3c5b 3c3c     >>]<<<<<<<<<[<<<
a0007190:	3c3c 3c3c 3c3c 3e5d 3e3e 2b3e 5b3e 3c2d     <<<<<<]>>>>+>[-<
a00071a0:	3c2d 3c3c 2b3c 3e3e 3e3e 5d3e 5b3e 3c2d     -<<<<+>>>>>]>[-<
a00071b0:	3c3c 3c3c 5b3c 3e2d 3e3e 3e3e 3c2b 2b2b     <<<<<[->>>>>+<++
a00071c0:	3c3c 3c3c 3e5d 3e3e 3e3e 2d5b 203c 3c3c     <<<<]>>>>>[-< <<
a00071d0:	3c3c 3e2b 3e3e 3e3e 3c5d 3e2d 3e2b 3c5d     <<+>>>>>]<->+>]<
a00071e0:	2d5b 2b3e 5d3c 3c3c 3c3c 5b3c 3e2d 3e3e     [->+<]<<<<<[->>>
a00071f0:	3e3e 3c2b 3c3c 3c3c 3e5d 3e3e 3e3e 5b3e     >>+<<<<<]>>>>>>[
a0007200:	5d2d 3c3c 3c3c 3c3c 3e2b 3e3e 5b3e 3c2d     -]<<<<<<+>>>>[-<
a0007210:	3c3c 2d3c 3e3e 3e3e 2b5d 3c3c 3c3c 5b20     <<<->>>>]+<<<< [
a0007220:	3e2d 3e3e 2d3e 3e3e 3e3e 5b3e 3e3e 2d5b     ->>>>->>>>>[>>[-
a0007230:	3c3c 3e2d 5d3e 3c2b 5b3c 3e2d 2d3e 5b3e     <<->>]+<<[->>->[
a0007240:	3c2d 3c3c 3e2b 3e3e 3c5d 3c3c 2d5b 3e3e     -<<<+>>>]<<<[->>
a0007250:	2b3e 3c3c 3c3c 3c3c 3c3c 3c3c 3c3c 3c5b     >+<<<<<<<<<<<<[<
a0007260:	3c3c 3c3c 3c3c 3c3c 3e5d 3e3e 2d5b 205d     <<<<<<<<]>>>[-] 
a0007270:	3e2b 3e3e 3e3e 5b3e 3e3e 3e3e 3e3e 3e3e     +>>>>>>[>>>>>>>>
a0007280:	5d3e 2b3e 5d3c 2b5d 3e3e 5b3e 3c2d 3c3c     >]>+<]]+>>>[-<<<
a0007290:	3e2d 3e3e 2b5d 3c3c 5b3c 3e2d 3e3e 3c2d     ->>>]+<<<[->>>-<
a00072a0:	2d5b 3c3c 3e2b 5d3e 3c3c 2d5b 3e3e 3c2b     [-<<+>>]<<[->>+<
a00072b0:	3c3c 3c3c 3c3c 3c3c 3c3c 3c5b 3c3c 3c3c     <<<<<<<<<<[<<<<<
a00072c0:	3c20 3c3c 5d3c 3e3e 3e3e 2d5b 2b5d 3e3e      <<<<]>>>>[-]+>>
a00072d0:	3e3e 5b3e 3e3e 3e3e 3e3e 3e3e 5d3e 5b3e     >>>[>>>>>>>>>]>[
a00072e0:	5d2d 3c2b 5d5d 3e2b 2d5b 5b3c 3e3e 3e3e     -]+<]]+>[-<[>>>>
a00072f0:	3e3e 3e3e 5d3e 3c3c 3c3c 3c3c 3c3c 3e5d     >>>>>]<<<<<<<<]>
a0007300:	3e3e 3e3e 3e3e 5d3e 3c3c 3c3c 3c3c 3c3c     >>>>>>>]<<<<<<<<
a0007310:	203c 3c5b 3c3c 3c3c 3c3c 3c3c 3e5d 3e3e     < [<<<<<<<<<]>>>
a0007320:	5b3e 3c2d 3c3c 2b3c 3e3e 3e3e 3c5d 3c3c     >[-<<<<+>>>>]<<<
a0007330:	5b3c 3e2d 3e3e 2b3e 3e3e 3e3e 5b3e 2b3e     <[->>>>+>>>>>[>+
a0007340:	3e3e 2d5b 3c3c 3e2d 5d3e 3c3c 2d5b 3e3e     >>[-<<->>]<<[->>
a0007350:	3c2b 5d3c 3e3e 3e3e 3e3e 3e3e 3c5d 3c3c     +<<]>>>>>>>>]<<<
a0007360:	3c3c 3c20 3c3c 3c2b 3e5b 2d5b 3e3e 3e3e     << <<<+<[>[->>>>
a0007370:	2b3e 3c3c 3c3c 2d5b 3e3e 3e3e 3c2d 3c3c     >+<<<<[->>>>-<<<
a0007380:	3c3c 3c3c 3c3c 3c3c 3c3c 2b3c 3e3e 3e3e     <<<<<<<<<<<+>>>>
a0007390:	3e3e 3e3e 3e3e 5b3e 3e2d 3e3e 3c2b 3c3c     >>>>>>>[->>>+<<<
a00073a0:	3c5d 3e5d 2d5b 3e3e 2d3e 3c3c 3c3c 3c3c     ]<]>[->>>-<<<<<<
a00073b0:	3c3c 203c 3c3c 3c3c 2b3c 3e3e 3e3e 3e3e     <<< <<<<<+>>>>>>
a00073c0:	3e3e 3e3e 5d3e 3c3c 3e5d 2d5b 3e3e 3e3e     >>>>>]<<]>[->>>>
a00073d0:	3c2b 3c3c 2d5b 3e3e 2d3e 3c3c 3c3c 3c3c     +<<<[->>>-<<<<<<
a00073e0:	3c3c 3c3c 3c3c 3c3c 3e2b 3e3e 3e3e 3e3e     <<<<<<<<+>>>>>>>
a00073f0:	3e3e 3e3e 3c5d 3e5d 2d5b 3e3e 2b3e 3c3c     >>>>]<]>[->>>+<<
a0007400:	5d3c 3c3c 3c20 3c3c 3c3c 3c3c 3c3c 5d3c     <]<< <<<<<<<<<<]
a0007410:	3e3e 3e3e 2d5b 3c5d 3c3c 5d3c 3e3e 5b3e     >>>>[-]<<<<]>>>[
a0007420:	3c2d 3c3c 3e2b 3e3e 3c5d 3c3c 2d5b 3e3e     -<<<+>>>]<<<[->>
a0007430:	2b3e 3e3e 3e3e 3e3e 3e5b 3e2b 2d5b 2d3c     >+>>>>>>[>+>[-<-
a0007440:	5d3e 5b3c 3e2d 3c2b 3e5d 3e3e 3e3e 3e3e     >]<[->+<]>>>>>>>
a0007450:	5d3e 3c3c 203c 3c3c 3c3c 2b3c 5b3c 5b3e     >]<<< <<<<<+<[>[
a0007460:	3e2d 3e3e 3e3e 3c2b 3c3c 2d5b 3e3e 2d3e     ->>>>>+<<<[->>>-
a0007470:	3c3c 3c3c 3c3c 3c3c 3c3c 3c3c 3c3c 3e2b     <<<<<<<<<<<<<<+>
a0007480:	3e3e 3e3e 3e3e 3e3e 5b3e 3e2d 3e3e 2b3e     >>>>>>>>>[->>>>+
a0007490:	3c3c 3c3c 3e5d 3c5d 2d5b 3e3e 3e3e 3c2d     <<<<]>]<[->>>>-<
a00074a0:	3c3c 3c3c 3c3c 3c20 3c3c 3c3c 3c3c 3e2b     <<<<<< <<<<<<<+>
a00074b0:	3e3e 3e3e 3e3e 3e3e 5d3e 5d3c 3e3e 2d5b     >>>>>>>>>]<]>>[-
a00074c0:	3e3e 2b3e 3c3c 3c3c 2d5b 3e3e 3e3e 3c2d     >>>+<<<<[->>>>-<
a00074d0:	3c3c 3c3c 3c3c 3c3c 3c3c 3c3c 2b3c 3e3e     <<<<<<<<<<<<<+>>
a00074e0:	3e3e 3e3e 3e3e 3e3e 3e5d 3c5d 2d5b 3e3e     >>>>>>>>]>]<[->>
a00074f0:	3e3e 3c2b 3c3c 203c 3c5d 3c3c 3c3c 3c3c     >>+<<<< ]<<<<<<<
a0007500:	3c3c 3c3c 3e5d 3e3e 3e3e 2b3e 3c3c 3c3c     <<<<]>>>>>>+<<<<
a0007510:	3c3c 5d5d 3e3e 3e3e 2d5b 3c3c 3c3c 3e2b     <<]]>>>>[-<<<<+>
a0007520:	3e3e 5d3e 3c3c 3c3c 2d5b 3e3e 3e3e 3e2b     >>>]<<<<[->>>>+>
a0007530:	3e3e 3e3e 3e5b 3e3e 3e3e 3e3e 3e3e 3c5d     >>>>[>>>>>>>>>]<
a0007540:	3c3c 3c3c 3c3c 3c3c 5b20 5b3e 3e2d 3e3e     <<<<<<<< [>[->>>
a0007550:	3e3e 3c2b 3c3c 5b3c 3e2d 3e3e 2d3e 3c3c     >>+<<<<[->>>>-<<
a0007560:	3c3c 3c3c 3c3c 3c3c 3c3c 3c3c 3e2b 3e3e     <<<<<<<<<<<<+>>>
a0007570:	3e3e 3e3e 3e3e 3e3e 2d5b 3e3e 2b3e 3c3c     >>>>>>>>[->>>+<<
a0007580:	5d3c 5d3c 5b3e 3e2d 3e3e 3c2d 3c3c 3c3c     <]<]>[->>>-<<<<<
a0007590:	3c3c 3c3c 3c3c 3c3c 203c 3e2b 3e3e 3e3e     <<<<<<<<< +>>>>>
a00075a0:	3e3e 3e3e 3e3e 3c5d 5d3c 5b3e 3e2d 3e3e     >>>>>>]<<]>[->>>
a00075b0:	2b3e 3c3c 5b3c 3e2d 3e3e 3c2d 3c3c 3c3c     >+<<<[->>>-<<<<<
a00075c0:	3c3c 3c3c 3c3c 3c3c 2b3c 3e3e 3e3e 3e3e     <<<<<<<<<+>>>>>>
a00075d0:	3e3e 3e3e 5d3e 5d3c 5b3e 3e2d 3e3e 3c2b     >>>>>]<]>[->>>+<
a00075e0:	3c3c 3c5d 3c3c 3c3c 3c3c 3c20 3c3c 3c3c     <<]<<<<<<< <<<<<
a00075f0:	5d5d 5b3e 5d2d 3e3e 2d5b 3e5d 2d5b 3e5d     ]]>[-]>>[-]>[-]>
a0007600:	3e3e 3e3e 3e5b 5b3e 5d2d 5b3e 5d2d 3e3e     >>>>[>>[-]>[-]>>
a0007610:	3e3e 3e3e 3c5d 3c3c 3c3c 3c3c 3c3c 3c5b     >>>>]<<<<<<<<<[<
a0007620:	3c3c 3c3c 3c3c 3c3c 3e5d 3e3e 3e3e 3e3e     <<<<<<<<]>>>>>>>
a0007630:	3e3e 3e5b 3e3e 3e3e 2d5b 203c 3c3c 2b3c     >>[>>>>>[-< <<<+
a0007640:	3e3e 3e3e 3c5d 3c3c 5b3c 3e2d 3e3e 2b3e     >>>>]<<<<[->>>>+
a0007650:	3c3c 2b3c 5d3c 3e3e 3e3e 3e3e 3e3e 3c5d     <<<+<]>>>>>>>>]<
a0007660:	3c3c 3c3c 3c3c 3c3c 3c5b 3c3c 3c3c 3c3c     <<<<<<<<[<<<<<<<
a0007670:	3c3c 3e5d 3e3e 3e3e 3e3e 3e3e 2b2b 2b2b     <<]>>>>>>>>>++++
a0007680:	2b2b 2b2b 2b2b 2b2b 2b2b 5b2b 5b20 3e3e     +++++++++++[ [>>
a0007690:	3e3e 3e3e 3e3e 5d3e 3e2b 2d5b 3e5d 2d5b     >>>>>>>]+>[-]>[-
a00076a0:	3e5d 2d5b 3e5d 2d5b 3e5d 2d5b 3e5d 2d5b     ]>[-]>[-]>[-]>[-
a00076b0:	3e5d 2d5b 3e5d 2d5b 3e5d 2d5b 3c5d 3c3c     ]>[-]>[-]>[-]<<<
a00076c0:	3c3c 3c3c 3c3c 3c5b 3c3c 3c3c 3c3c 3c3c     <<<<<<[<<<<<<<<<
a00076d0:	3e5d 3e3e 3e3e 3e3e 3e3e 5d2d 202b 3e5b     ]>>>>>>>>>-]+ [>
a00076e0:	3e2b 3e3e 3e3e 3e3e 5d3e 3c3c 3c3c 3c3c     +>>>>>>>>]<<<<<<
a00076f0:	3c3c 5b3c 3c3c 3c3c 3c3c 3c3c 5d3c 3e3e     <<<[<<<<<<<<<]>>
a0007700:	3e3e 3e3e 3e3e 5b3e 2d3e 3e3e 3e3e 2d5b     >>>>>>>[>->>>>[-
a0007710:	3c3c 3c3c 3e2b 3e3e 5d3e 3c3c 3c3c 2d5b     <<<<+>>>>]<<<<[-
a0007720:	3e3e 3e3e 3c2b 3c3c 3c3c 2d5b 3e3e 5b20     >>>>+<<<<<[->> [
a0007730:	3c2d 2b3c 3e3e 3c5d 5b3c 3e2d 2b3e 2b3e     -<<+>>]<<[->>+>+
a0007740:	3c3c 5d3c 3e2b 3e3e 3e3e 3e3e 3e3e 3c5d     <<<]+>>>>>>>>>]<
a0007750:	3c3c 3c3c 3c3c 5b3c 3c3c 3c3c 3c3c 3c3c     <<<<<<<[<<<<<<<<
a0007760:	5d3c 3e5d 3e3e 3e3e 3e3e 3e3e 3e5b 3e3e     <]]>>>>>>>>>[>>>
a0007770:	3e3e 3e3e 3e3e 3c5d 3c3c 3c3c 3c3c 203c     >>>>>>]<<<<<<<< 
a0007780:	5b3c 5b3e 3e2d 3e3e 3e3e 3e3e 3e3e 3c2b     <[>[->>>>>>>>>+<
a0007790:	3c3c 3c3c 3c3c 3c3c 3c5d 3c3c 3c3c 3c3c     <<<<<<<<]<<<<<<<
a00077a0:	3c3c 5d3c 5b3e 3e2d 3e3e 3e3e 3e3e 3e3e     <<<]>[->>>>>>>>>
a00077b0:	3c2b 3c3c 3c3c 3c3c 3c3c 3c5d 3e2b 3e3e     +<<<<<<<<<]<+>>>
a00077c0:	3e3e 3e3e 5d3e 3c3c 3c3c 3c3c 3c3c 5b3c     >>>>>]<<<<<<<<<[
a00077d0:	3e20 2d5b 3c5d 3e2d 3e3e 2d5b 3c3c 2b3c      >[-]<->>>[-<<<+
a00077e0:	5b3e 2d3c 2d3e 3c3c 3c3c 3c3c 2b3c 3e3e     >[<->-<<<<<<<+>>
a00077f0:	3e3e 3e3e 5d3e 5b3c 3e2d 3c2b 3e5d 3e3e     >>>>>]<[->+<]>>>
a0007800:	3c5d 5b3c 3e2d 2b3e 3c3c 3c5d 3c2b 3c3c     ]<<[->>+<<]<+<<<
a0007810:	3c3c 3c3c 3c3c 3e5d 3e3e 3e3e 3e3e 3e3e     <<<<<<]>>>>>>>>>
a0007820:	205b 3e3e 5b3e 3c2d 3c3c 3c3c 3c3c 3c3c     [ >>>[-<<<<<<<<<
a0007830:	3c3c 3c3c 3c3c 3c3c 3c3c 3c3c 3c3c 3c3c     <<<<<<<<<<<<<<<<
a0007840:	3c3c 3c3c 3c3c 3c3c 3c3c 2b3c 3e3e 3e3e     <<<<<<<<<<<+>>>>
a0007850:	3e3e 3e3e 3e3e 3e3e 3e3e 3e3e 3e3e 3e3e     >>>>>>>>>>>>>>>>
a0007860:	3e3e 3e3e 3e3e 3e3e 3e3e 3e3e 3e3e 3e3e     >>>>>>>>>>>>>>>>
a0007870:	3e5d 3e20 3e3e 3e3e 3c5d 3c3c 3c3c 3c3c     ]> >>>>>]<<<<<<<
a0007880:	3c3c 3c5b 3c3c 3c3c 3c3c 3c3c 3e5d 3e3e     <<[<<<<<<<<<]>>>
a0007890:	3e3e 2d5b 3e5d 3e3e 2b3e 2b2b 2b2b 2b2b     >>[-]>>>>+++++++
a00078a0:	2b2b 2b2b 2b2b 2b2b 5b5b 3e3e 3e3e 3e3e     ++++++++[[>>>>>>
a00078b0:	3e3e 5d3e 3c3c 3c3c 3c3c 3c3c 2d3c 3c3c     >>>]<<<<<<<<<-<<
a00078c0:	3c3c 203c 3c3c 3c3c 3c5b 3c3c 3c3c 3c3c     <<< <<<<[<<<<<<<
a00078d0:	3c3c 3e5d 3e3e 3e3e 3e3e 3e3e 5d2d 5b2b     <<]>>>>>>>>>-]+[
a00078e0:	3e3e 5b3e 3c2d 3c3c 3e2d 3e3e 2b5d 3c3c     >>>[-<<<->>>]+<<
a00078f0:	5b3c 3e2d 3e3e 3e2d 2d5b 3c3c 3c3c 3e2b     <[->>>->[-<<<<+>
a0007900:	3e3e 5d3e 3c3c 3c3c 2d5b 3e3e 3e3e 3c2b     >>>]<<<<[->>>>+<
a0007910:	3c3c 3c3c 3c20 3c3c 3c3c 3c3c 5b3c 3c3c     <<<< <<<<<<<<[<<
a0007920:	3c3c 3c3c 3c3c 5d3c 3e3e 3e3e 2d5b 2b5d     <<<<<<<]>>>>[-]+
a0007930:	3e3e 3e3e 5b3e 3e3e 3e3e 3e3e 3e3e 5d3e     >>>>>[>>>>>>>>>]
a0007940:	2b3e 5d3c 2b5d 3e3e 3e3e 2d5b 3c3c 3c3c     >+<]]+>>>>[-<<<<
a0007950:	3e2d 3e3e 5d3e 3c2b 3c3c 5b3c 3e2d 3e3e     ->>>>]+<<<<[->>>
a0007960:	2d3e 5b3c 202d 3c3c 2b3c 3e3e 5d3e 3c3c     >-<[- <<<+>>>]<<
a0007970:	5b3c 3e2d 3e3e 3c2b 3c3c 3c3c 3c3c 3c3c     <[->>>+<<<<<<<<<
a0007980:	3c3c 5b3c 3c3c 3c3c 3c3c 3c3c 5d3c 3e3e     <<<[<<<<<<<<<]>>
a0007990:	5b3e 5d2d 3e2b 3e3e 3e3e 5b3e 3e3e 3e3e     >[-]+>>>>>>[>>>>
a00079a0:	3e3e 3e3e 5d3e 5b3e 5d2d 3c2b 5d5d 3e2b     >>>>>]>[-]+<]]+>
a00079b0:	2d5b 5b3c 3e3e 3e20 3e3e 3e3e 3e3e 3c5d     [-<[>> >>>>>>>]<
a00079c0:	3c3c 3c3c 3c3c 5d3c 3e3e 3e3e 3e3e 3e3e     <<<<<<<]>>>>>>>>
a00079d0:	3c5d 3c3c 3c3c 3c3c 3c3c 3c5b 3c3c 3c3c     ]<<<<<<<<<[<<<<<
a00079e0:	3c3c 3c3c 3e5d 3e3e 2d5b 3c3c 2b3c 3e3e     <<<<]>>>[-<<<+>>
a00079f0:	5d3e 3c3c 5b3c 3e2d 3e3e 3e2b 3e3e 3e3e     >]<<<[->>>+>>>>>
a0007a00:	5b3e 2b3e 3e3e 203e 2d5b 3c3c 2d3c 3e3e     >[>+>>> [-<<<->>
a0007a10:	5d3e 3c3c 5b3c 3e2d 3e3e 3c2b 3c3c 3e5d     >]<<<[->>>+<<<]>
a0007a20:	3e3e 3e3e 3e3e 5d3e 3c3c 3c3c 3c3c 3c3c     >>>>>>>]<<<<<<<<
a0007a30:	3c2b 3e5b 2d5b 2b3e 5b3e 3c2d 3c2d 3c3c     +<[>[->+>[-<-<<<
a0007a40:	3c3c 3c3c 3c3c 2b3c 3e3e 3e3e 3e3e 3e3e     <<<<<<<+>>>>>>>>
a0007a50:	3e3e 3e3e 2d5b 3c3c 2b20 3e3e 3c5d 3e5d     >>>>[-<< +>>]<]>
a0007a60:	2d5b 3c3c 3c2d 3c3c 3c3c 3c3c 3c3c 2b3c     [-<<-<<<<<<<<<<+
a0007a70:	3e3e 3e3e 3e3e 3e3e 3e3e 3e3e 3c5d 3c3c     >>>>>>>>>>>>]<<<
a0007a80:	3e5d 5b3e 3c2d 3e2b 5b3e 3c2d 2d3c 3c3c     ]>>[-<+>>[-<<-<<
a0007a90:	3c3c 3c3c 3c3c 3c3c 3e2b 3e3e 3e3e 3e3e     <<<<<<<<+>>>>>>>
a0007aa0:	3e3e 3e3e 5d3e 5d3c 203e 2d5b 3c3c 3e2b     >>>>>]<]> [-<<+>
a0007ab0:	5d3e 3c3c 3c3c 3c3c 3c3c 3c3c 3c3c 5d3c     >]<<<<<<<<<<<<<]
a0007ac0:	3e5d 3e3e 5b3e 3c2d 3c3c 2b3c 3e3e 3e3e     ]>>>>[-<<<<+>>>>
a0007ad0:	3c5d 3c3c 5b3c 3e2d 3e3e 2b3e 3e3e 3e3e     ]<<<<[->>>>+>>>>
a0007ae0:	5b3e 2b3e 3e3e 2d5b 3c3c 3e2d 5d3e 3c3c     >[>+>>[-<<->>]<<
a0007af0:	2d5b 3e3e 3c2b 5d3c 3e3e 3e20 3e3e 3e3e     [->>+<<]>> >>>>>
a0007b00:	5d3e 3c3c 3c3c 3c3c 3c3c 3c2b 3e5b 2d5b     >]<<<<<<<<+<[>[-
a0007b10:	2b3e 3e3e 2d5b 3c3c 3c2d 3c3c 3c3c 3c3c     >+>>[-<<-<<<<<<<
a0007b20:	3c3c 2b3c 3e3e 3e3e 3e3e 3e3e 3e3e 5b3e     <<<+>>>>>>>>>>>[
a0007b30:	3c2d 3e2b 3e5d 3c5d 2d5b 2d3c 3c3c 3c3c     -<+>]>]<[-<-<<<<
a0007b40:	3c3c 3c3c 3c3c 3e2b 3e3e 203e 3e3e 3e3e     <<<<<<+>>>> >>>>
a0007b50:	3e3e 5d3e 3c3c 3e5d 3e3e 2d5b 3c3c 3e2b     >>>]<<]>>>[-<<+>
a0007b60:	2d5b 2d3c 3c3c 3c3c 3c3c 3c3c 3c3c 3e2b     [-<-<<<<<<<<<<+>
a0007b70:	3e3e 3e3e 3e3e 3e3e 3e3e 3e5d 3c5d 2d5b     >>>>>>>>>>]>]<[-
a0007b80:	2b3c 5d3e 3c3c 3c3c 3c3c 3c3c 3c3c 3c3c     <+>]<<<<<<<<<<<<
a0007b90:	3e5d 3e3e 3e3e 3c2b 3c3c 3c3c 5d20 3e3e     ]>>>>>+<<<<< ]>>
a0007ba0:	3e3e 3e3e 3e3e 5b3e 3e3e 5b3e 5d2d 5b3e     >>>>>>>[>>>[-]>[
a0007bb0:	5d2d 5b3e 5d2d 3e3e 3e3e 3c5d 3c3c 3c3c     -]>[-]>>>>]<<<<<
a0007bc0:	3c3c 3c3c 3c5b 3c3c 3c3c 3c3c 3c3c 3e5d     <<<<[<<<<<<<<<]>
a0007bd0:	3e3e 2d5b 3e5d 2d5b 3e5d 3e3e 3e3e 3e5b     >>[-]>[-]>>>>>[>
a0007be0:	3e3e 3e3e 3e3e 2d5b 3c3c 3c3c 203c 2b3c     >>>>>>[-<<<<< <+
a0007bf0:	3e3e 3e3e 3e3e 3c5d 3c3c 3c3c 5b3c 3e2d     >>>>>>]<<<<<<[->
a0007c00:	3e3e 3e3e 2b3e 3c3c 3c3c 3c2b 5d3c 3e3e     >>>>>+<<<<+<<]>>
a0007c10:	3e3e 3e3e 3e3e 3c5d 3c3c 3c3c 3c3c 3c3c     >>>>>>]<<<<<<<<<
a0007c20:	3c5b 3c3c 3c3c 3c3c 3c3c 3e5d 3e3e 2b3e     [<<<<<<<<<]>>>>+
a0007c30:	5b3e 3c2d 3c2d 3c3c 2b3c 3e3e 3e3e 3e20     >[-<-<<<<+>>>> >
a0007c40:	3e5d 5b3e 3c2d 3c3c 3c3c 3c3c 2d5b 3e3e     ]>>[-<<<<<<<[->>
a0007c50:	3e3e 2b3e 2b3c 3c2b 3c3c 5d3c 3e3e 3e3e     >>>+<++<<<<]>>>>
a0007c60:	5b3e 3c2d 3c3c 3c3c 3e2b 3e3e 3e3e 3c5d     >[-<<<<<+>>>>>]<
a0007c70:	3e2d 3e2b 5d3e 3c3c 2d5b 3e3e 3c2b 5d3c     ->+>>]<<[->>+<<]
a0007c80:	3c3c 3c3c 5b3c 3e2d 3e3e 3e3e 3c2b 203c     <<<<<[->>>>>+<< 
a0007c90:	3c3c 5d3c 3e2b 3e3e 5b3e 3c2d 3c3c 2d3c     <<<]+>>>>[-<<<<-
a0007ca0:	3e3e 3e3e 2b5d 3c3c 3c3c 2d5b 3e3e 3e3e     >>>>]+<<<<[->>>>
a0007cb0:	3e2d 3e3e 3e3e 3e5b 3e3e 2d5b 3c3c 2d3c     ->>>>>[>>>[-<<<-
a0007cc0:	3e3e 5d3e 3c2b 3c3c 2d5b 3e3e 2d3e 5b3c     >>>]+<<<[->>>-<[
a0007cd0:	3c2d 2b3c 3e3e 3c5d 5b3c 3e2d 2b3e 3c3c     -<<+>>]<<[->>+<<
a0007ce0:	3c20 3c3c 3c3c 3c3c 3c3c 3c5b 3c3c 3c3c      <<<<<<<<<[<<<<<
a0007cf0:	3c3c 3c3c 3e5d 3e3e 5b3e 5d2d 3e2b 3e3e     <<<<]>>>>[-]+>>>
a0007d00:	3e3e 3e5b 3e3e 3e3e 3e3e 3e3e 3e5d 3c2b     >>[>>>>>>>>>]>+<
a0007d10:	5d5d 3e2b 5b3e 3c2d 2d3c 3e3e 2b5d 3c3c     ]]+>>[-<<->>]+<<
a0007d20:	2d5b 3e3e 3e2d 2d5b 3c3c 2b3c 3e3e 5d3e     [->>->[-<<<+>>>]
a0007d30:	203c 3c3c 2d5b 3e3e 2b3e 3c3c 3c3c 3c3c     < <<[->>>+<<<<<<
a0007d40:	3c3c 3c3c 3c3c 3c5b 3c3c 3c3c 3c3c 3c3c     <<<<<<[<<<<<<<<<
a0007d50:	3e5d 3e3e 2d5b 2b5d 3e3e 3e3e 3e3e 3e5b     ]>>>[-]+>>>>>>[>
a0007d60:	3e3e 3e3e 3e3e 3e3e 3e5d 2d5b 2b5d 5d3c     >>>>>>>>]>[-]+<]
a0007d70:	2b5d 5b3e 3c2d 3e5b 3e3e 3e3e 3e3e 3e3e     ]+>[-<[>>>>>>>>>
a0007d80:	3c5d 3c20 3c3c 3c3c 3c3c 3e5d 3e3e 3e3e     ]< <<<<<<<]>>>>>
a0007d90:	3e3e 5d3e 3c3c 3c3c 3c3c 3c3c 5b3c 3c3c     >>>]<<<<<<<<<[<<
a0007da0:	3c3c 3c3c 3c3c 5d3c 3e3e 5b3e 3c2d 3c3c     <<<<<<<]>>>[-<<<
a0007db0:	3e2b 3e3e 3c5d 3c3c 2d5b 3e3e 2b3e 3e3e     +>>>]<<<[->>>+>>
a0007dc0:	3e3e 3e3e 3e5b 3e2b 2d5b 2d3c 5d3e 5b3c     >>>>[>+>[-<->]<[
a0007dd0:	3e2d 202b 5d3c 3e3e 3e3e 3e3e 3e3e 3c5d     ->+ <]>>>>>>>>]<
a0007de0:	3c3c 3c3c 3c3c 2b3c 5b3c 5b3e 3e2d 3e3e     <<<<<<<+<[>[->>>
a0007df0:	2b3e 3c3c 2d5b 3e3e 3c2d 3c3c 3c3c 3c3c     >+<<[->>-<<<<<<<
a0007e00:	3c3c 3c3c 3c3c 3e2b 3e3e 3e3e 3e3e 3e3e     <<<<<<+>>>>>>>>>
a0007e10:	5b3e 3e2d 3e3e 3c2b 3c3c 3e5d 3c5d 2d5b     >[->>>+<<<]>]<[-
a0007e20:	3e3e 2d3e 3c20 3c3c 3c3c 3c3c 3c3c 3c3c     >>>- <<<<<<<<<<<
a0007e30:	3c3c 3e2b 3e3e 3e3e 3e3e 3e3e 5d3e 5d3c     <<+>>>>>>>>>>]<]
a0007e40:	3e3e 2d5b 3e3e 3c2b 3c3c 2d5b 3e3e 2d3e     >>[->>+<<<[->>>-
a0007e50:	3c3c 3c3c 3c3c 3c3c 3c3c 3c3c 2b3c 3e3e     <<<<<<<<<<<<<+>>
a0007e60:	3e3e 3e3e 3e3e 3e3e 3e5d 3c5d 2d5b 3e3e     >>>>>>>>]>]<[->>
a0007e70:	2b3e 3c3c 203c 3c5d 3c3c 3c3c 3c3c 3c3c     >+<<< ]<<<<<<<<<
a0007e80:	3c3c 3e5d 3e3e 3e3e 2d5b 3e5d 5b3e 3c2d     <<]>>>>>[-]>>[-<
a0007e90:	3c3c 3c3c 3c3c 3e2b 3e3e 3e3e 3e3e 3c5d     <<<<<<+>>>>>>>]<
a0007ea0:	3c3c 3c3c 3c3c 2d5b 3e3e 3e3e 3e3e 2b3e     <<<<<<[->>>>>>>+
a0007eb0:	3c3c 3c2b 3c3c 3c3c 5d5d 3e3e 3e3e 2d5b     <<+<<<<<]]>>>>[-
a0007ec0:	3c3c 3c3c 3e2b 3e20 3e3e 3c5d 3c3c 5b3c     <<<<+> >>>]<<<<[
a0007ed0:	3e2d 3e3e 2b3e 3e3e 3e3e 5b3e 2b3e 3e3e     ->>>>+>>>>>[>+>>
a0007ee0:	2d5b 3c3c 3e2d 5d3e 3c3c 2d5b 3e3e 3c2b     [-<<->>]<<[->>+<
a0007ef0:	5d3c 3e3e 3e3e 3e3e 3e3e 3c5d 3c3c 3c3c     <]>>>>>>>>]<<<<<
a0007f00:	3c3c 2b3c 5b3c 5b3e 3e2d 3e3e 2b3e 3c3c     <<<+<[>[->>>>+<<
a0007f10:	5b3c 3e2d 3e3e 202d 3c3c 3c3c 3c3c 3c3c     <[->>>- <<<<<<<<
a0007f20:	3c3c 3c3c 2b3c 3e3e 3e3e 3e3e 3e3e 3e3e     <<<<<+>>>>>>>>>>
a0007f30:	5b3e 3e2d 2b3e 3c3c 3c5d 3e5d 2d5b 3e3e     >[->>+<<]<]>[->>
a0007f40:	3c2d 3c3c 3c3c 3c3c 3c3c 3c3c 3c3c 3e2b     -<<<<<<<<<<<<<+>
a0007f50:	3e3e 3e3e 3e3e 3e3e 3e3e 3c5d 5d3c 5b3e     >>>>>>>>>>]<<]>[
a0007f60:	3e2d 3e3e 3c2b 5b3c 2d20 3e3e 3c2d 3c3c     ->>>+<<[ ->>-<<<
a0007f70:	3c3c 3c3c 3c3c 3c3c 3c3c 3e2b 3e3e 3e3e     <<<<<<<<<<+>>>>>
a0007f80:	3e3e 3e3e 3e3e 3c5d 3e5d 2d5b 3e3e 3c2b     >>>>>>]<]>[->>+<
a0007f90:	5d3c 3c3c 3c3c 3c3c 3c3c 3c3c 3c3c 5d5d     <]<<<<<<<<<<<<]]
a0007fa0:	3e3e 3e3e 2d5b 3c5d 3c3c 5d3c 3e3e 3e3e     >>>>[-]<<<<]>>>>
a0007fb0:	2d5b 3c3c 3c3c 3e2b 203e 3e3e 3c5d 3c3c     [-<<<<+>> >>]<<<
a0007fc0:	5b3c 3e2d 3e3e 2b3e 5b3e 5d2d 3e3e 2d5b     <[->>>>+>[-]>>[-
a0007fd0:	3c3c 3c3c 3c3c 2b3c 3e3e 3e3e 3e3e 5d3e     <<<<<<<+>>>>>>>]
a0007fe0:	3c3c 3c3c 3c3c 5b3c 3e2d 3e3e 3e3e 3e3e     <<<<<<<[->>>>>>>
a0007ff0:	3c2b 2b3c 3c3c 3c3c 5d3c 3e3e 3e3e 3e3e     +<<+<<<<<]>>>>>>
a0008000:	3e3e 5b3e 3e3e 3e3e 3e3e 3e20 3e3e 3c5d     >>>[>>>>>> >>>]<
a0008010:	3c3c 3c3c 3c3c 3c3c 3e5b 2d5b 3e3e 3e3e     <<<<<<<<[>[->>>>
a0008020:	3c2b 3c3c 2d5b 3e3e 2d3e 3c3c 3c3c 3c3c     +<<<[->>>-<<<<<<
a0008030:	3c3c 3c3c 3c3c 2b3c 3e3e 3e3e 3e3e 3e3e     <<<<<<<+>>>>>>>>
a0008040:	3e3e 5b3e 3e2d 2b3e 3c3c 3c5d 3e5d 2d5b     >>>[->>+<<]<]>[-
a0008050:	3e3e 3c2d 3c3c 3c3c 3c3c 203c 3c3c 3c3c     >>-<<<<<<<< <<<<
a0008060:	2b3c 3e3e 3e3e 3e3e 3e3e 3e3e 5d3e 3c3c     <+>>>>>>>>>>>]<<
a0008070:	3e5d 2d5b 3e3e 2b3e 3c3c 2d5b 3e3e 3c2d     ]>[->>>+<<[->>-<
a0008080:	3c3c 3c3c 3c3c 3c3c 3c3c 3c3c 3e2b 3e3e     <<<<<<<<<<<<+>>>
a0008090:	3e3e 3e3e 3e3e 3e3e 3c5d 3e5d 2d5b 3e3e     >>>>>>>>]<]>[->>
a00080a0:	3c2b 5d3c 3c3c 3c3c 3c3c 3c3c 3c20 3c3c     +<<]<<<<<<<< <<<
a00080b0:	5d3c 3e5d 3e3e 3e3e 3e3e 3e3e 3e5b 5b3e     <]]>>>>>>>>>[>>[
a00080c0:	5d2d 5b3e 5d2d 3e3e 3e3e 3e3e 3c5d 3c3c     -]>[-]>>>>>>]<<<
a00080d0:	3c3c 3c3c 3c3c 3c5b 3c3c 3c3c 3c3c 3c3c     <<<<<<[<<<<<<<<<
a00080e0:	3e5d 3e3e 2d5b 3e5d 2d5b 3e5d 3e3e 3e3e     ]>>>[-]>[-]>>>>>
a00080f0:	3e5b 3e3e 3e3e 2d5b 3c3c 3c3c 202b 3e3e     [>>>>>[-<<<<+ >>
a0008100:	3e3e 3c5d 3c3c 5b3c 3e2d 3e3e 2b3e 3c3c     >>]<<<<[->>>>+<<
a0008110:	2b3c 5d3c 3e3e 3e3e 3e3e 3e3e 3c5d 3c3c     <+<]>>>>>>>>]<<<
a0008120:	3c3c 3c3c 3c3c 3c5b 3c3c 3c3c 3c3c 3c3c     <<<<<<[<<<<<<<<<
a0008130:	3e5d 3e3e 3e3e 3e3e 3e3e 3e5b 3e3e 3e3e     ]>>>>>>>>>[>>>>>
a0008140:	5b3e 3c2d 3c3c 3c3c 3e2b 3e3e 3e3e 5d20     >[-<<<<<+>>>>> ]
a0008150:	3c3c 3c3c 5b3c 3e2d 3e3e 3e3e 3c2b 3c3c     <<<<<[->>>>>+<<<
a0008160:	3c2b 5d3c 3e3e 3e3e 3e3e 3e3e 3c5d 3c3c     +<<]>>>>>>>>]<<<
a0008170:	3c3c 3c3c 3c3c 3c5b 3c3c 3c3c 3c3c 3c3c     <<<<<<[<<<<<<<<<
a0008180:	3e5d 3e3e 3e3e 3e3e 3e3e 2b2b 2b2b 2b2b     ]>>>>>>>>>++++++
a0008190:	2b2b 2b2b 2b2b 2b2b 5b2b 3e5b 3e3e 203e     +++++++++[[>>>> 
a00081a0:	3e3e 3e3e 5d3e 3e2b 2d5b 3e5d 2d5b 3e5d     >>>>>]+>[-]>[-]>
a00081b0:	2d5b 3e5d 2d5b 3e5d 2d5b 3e5d 2d5b 3e5d     [-]>[-]>[-]>[-]>
a00081c0:	2d5b 3e5d 2d5b 3e5d 2d5b 3c5d 3c3c 3c3c     [-]>[-]>[-]<<<<<
a00081d0:	3c3c 3c3c 3c5b 3c3c 3c3c 3c3c 3c3c 3e5d     <<<<[<<<<<<<<<]>
a00081e0:	3e3e 3e3e 3e3e 3e3e 5d2d 5b2b 2b3e 3e3e     >>>>>>>>-]+[>+>>
a00081f0:	3e20 3e3e 3e3e 5d3e 3c3c 3c3c 3c3c 3c3c      >>>>>>]<<<<<<<<
a0008200:	5b3c 3c3c 3c3c 3c3c 3c3c 5d3c 3e3e 3e3e     <[<<<<<<<<<]>>>>
a0008210:	3e3e 3e3e 5b3e 2d3e 3e3e 3e3e 2d5b 3c3c     >>>>>[>->>>>[-<<
a0008220:	3c3c 3e2b 3e3e 5d3e 3c3c 3c3c 2d5b 3e3e     <<+>>>>]<<<<[->>
a0008230:	3e3e 3c2b 3c3c 3c3c 2d5b 3e3e 2d5b 3c3c     >>+<<<<<[->>[-<<
a0008240:	202b 3e3e 3c5d 5b3c 3e2d 2b3e 3e3e 3c2b     + >>]<<[->>+>>+<
a0008250:	3c3c 5d3c 3e2b 3e3e 3e3e 3e3e 3e3e 3c5d     <<<]+>>>>>>>>>]<
a0008260:	3c3c 3c3c 3c3c 5b3c 3c3c 3c3c 3c3c 3c3c     <<<<<<<[<<<<<<<<
a0008270:	5d3c 3e5d 3e3e 3e3e 3e3e 3e3e 3e5b 3e3e     <]]>>>>>>>>>[>>>
a0008280:	3e3e 3e3e 3e3e 3c5d 3c3c 3c3c 3c3c 3c3c     >>>>>>]<<<<<<<<<
a0008290:	3e5b 5b20 3e2d 3e3e 3e3e 3e3e 3e3e 3c2b     [> [->>>>>>>>>+<
a00082a0:	3c3c 3c3c 3c3c 3c3c 3c5d 3c3c 3c3c 3c3c     <<<<<<<<]<<<<<<<
a00082b0:	3c3c 5d3c 5b3e 3e2d 3e3e 3e3e 3e3e 3e3e     <<<]>[->>>>>>>>>
a00082c0:	3c2b 3c3c 3c3c 3c3c 3c3c 3c5d 3e2b 3e3e     +<<<<<<<<<]<+>>>
a00082d0:	3e3e 3e3e 5d3e 3c3c 3c3c 3c3c 3c3c 5b3c     >>>>>]<<<<<<<<<[
a00082e0:	5b3e 202d 3c5d 3e2d 3e3e 5b3e 3c2d 3c3c     >[- ]<->>>>[-<<<
a00082f0:	2b3c 5b3e 2d3c 2d3e 3c3c 3c3c 3c3c 3e2b     <+>[<->-<<<<<<+>
a0008300:	3e3e 3e3e 5d3e 5b3c 3e2d 3c2b 3e5d 3e3e     >>>>>]<[->+<]>>>
a0008310:	5d3e 3c3c 5b3c 3e2d 3e3e 3c2b 3c3c 3c5d     >]<<<[->>>+<<<]<
a0008320:	3c2b 3c3c 3c3c 3c3c 3c3c 3e5d 3e3e 3e3e     +<<<<<<<<<]>>>>>
a0008330:	3e3e 3e3e 5b20 2b3e 3e3e 3e3e 3e3e 3e3e     >>>> [>+>>>>>>>>
a0008340:	3c5d 3c3c 3c3c 3c3c 3c3c 3c5b 3c3c 3c3c     ]<<<<<<<<<[<<<<<
a0008350:	3c3c 3c3c 3e5d 3e3e 3e3e 3e3e 3e3e 3e5b     <<<<]>>>>>>>>>[>
a0008360:	3e2d 3e3e 3e3e 2d5b 3c3c 3c3c 2b3c 3e3e     ->>>>>[-<<<<<+>>
a0008370:	3e3e 5d3e 3c3c 3c3c 5b3c 3e2d 3e3e 3e3e     >>>]<<<<<[->>>>>
a0008380:	3c2b 3c3c 203c 3c3c 2d5b 3e3e 5b3e 3c2d     +<<<< <<[->>>[-<
a0008390:	3c3c 3e2b 3e3e 3c5d 3c3c 2d5b 3e3e 2b3e     <<+>>>]<<<[->>>+
a00083a0:	2b3e 3c3c 3c3c 2b5d 3e3e 3e3e 3e3e 3e3e     >+<<<<]+>>>>>>>>
a00083b0:	5d3e 3c3c 3c3c 3c3c 3c3c 3c5b 3c3c 3c3c     >]<<<<<<<<[<<<<<
a00083c0:	3c3c 3c3c 5d5d 3e3e 3e3e 3e3e 3e3e 5b3e     <<<<]]>>>>>>>>>[
a00083d0:	3e3e 3e3e 3e3e 3e20 3e3e 3c5d 3c3c 3c3c     >>>>>> >>>]<<<<<
a00083e0:	3c3c 3c3c 3e5b 5b3e 3e2d 3e3e 3e3e 3e3e     <<<<[>>[->>>>>>>
a00083f0:	3e3e 3c2b 3c3c 3c3c 3c3c 3c3c 3c5d 3c3c     >>+<<<<<<<<<]<<<
a0008400:	3c3c 3c3c 3c3c 3c3c 3e5d 5b3e 3e2d 3e3e     <<<<<<<<]>>[->>>
a0008410:	3e3e 3e3e 3e3e 3c2b 3c3c 3c3c 3c3c 3c3c     >>>>>>+<<<<<<<<<
a0008420:	3c5d 2b3c 3e3e 203e 3e3e 3e3e 5d3e 3c3c     ]<<+>>> >>>>>]<<
a0008430:	3c3c 3c3c 3c3c 5b3c 5b3e 5d2d 2d3c 3e3e     <<<<<<<[>[-]<->>
a0008440:	3e3e 2d5b 3c3c 3c3c 3e2b 3c5b 3e2d 3c2d     >>[-<<<<+>[<->-<
a0008450:	3c3c 3c3c 2b3c 3e3e 3e3e 3e3e 3c5d 2d5b     <<<<<+>>>>>>]<[-
a0008460:	2b3e 5d3c 3e3e 3e3e 3c5d 3c3c 2d5b 3e3e     >+<]>>>>]<<<[->>
a0008470:	2b3e 3c3c 5d3c 2b3c 3c20 3c3c 3c3c 3c3c     >+<<<]<+ <<<<<<<
a0008480:	3c3c 3e5d 3e3e 3e3e 3e3e 3e3e 3e5b 3e3e     <<]>>>>>>>>>[>>>
a0008490:	5b3e 3c2d 3c3c 3c3c 3c3c 3c3c 3c3c 3c3c     >[-<<<<<<<<<<<<<
a00084a0:	3c3c 3c3c 3c3c 3c3c 3c3c 3c3c 3c3c 3c3c     <<<<<<<<<<<<<<<<
a00084b0:	3c3c 3c3c 3c3c 2b3c 3e3e 3e3e 3e3e 3e3e     <<<<<<<+>>>>>>>>
a00084c0:	3e3e 3e3e 3e3e 3e3e 203e 3e3e 3e3e 3e3e     >>>>>>>>> >>>>>>
a00084d0:	3e3e 3e3e 3e3e 3e3e 3e3e 3e3e 5d3e 3e3e     >>>>>>>>>>>>>]>>
a00084e0:	3e3e 5d3e 3c3c 3c3c 3c3c 3c3c 5b3c 3c3c     >>>]<<<<<<<<<[<<
a00084f0:	3c3c 3c3c 3c3c 5d3c 3e3e 3e3e 3e3e 3e3e     <<<<<<<]>>>>>>>>
a0008500:	2b3e 2b2b 2b2b 2b2b 2b2b 2b2b 2b2b 2b2b     >+++++++++++++++
a0008510:	5b5b 3e3e 3e3e 3e3e 3e3e 3e20 3c5d 3c3c     [[>>>>>>>> >]<<<
a0008520:	3c3c 3c3c 3c3c 3c2d 3c3c 3c3c 3c3c 3c3c     <<<<<<-<<<<<<<<<
a0008530:	3c5b 3c3c 3c3c 3c3c 3c3c 3e5d 3e3e 3e3e     [<<<<<<<<<]>>>>>
a0008540:	3e3e 3e3e 5d2d 3e2b 3e3e 3e3e 3e3e 3e3e     >>>>-]+>>>>>>>>>
a0008550:	3e3e 3e3e 3e3e 3e3e 3e3e 3e3e 3c2b 3c3c     >>>>>>>>>>>>+<<<
a0008560:	3c5b 3c3c 3c3c 3c3c 3c3c 205d 3e3e 3e3e     [<<<<<<<<<] >>>>
a0008570:	3e3e 3e3e 5b3e 3e3e 5b3e 3c2d 3c3c 3e2d     >>>>>[>>>[-<<<->
a0008580:	3e3e 2b5d 3c3c 5b3c 3e2d 3e3e 3e2d 2d5b     >>]+<<<[->>>->[-
a0008590:	3c3c 3c3c 3e2b 3e3e 5d3e 3c3c 3c3c 2d5b     <<<<+>>>>]<<<<[-
a00085a0:	3e3e 3e3e 3c2b 3c3c 3c3c 3c3c 3c3c 3c3c     >>>>+<<<<<<<<<<<
a00085b0:	3c3c 3c5b 3c3c 3c3c 3c3c 3c3c 5d20 3e3e     <<[<<<<<<<<< ]>>
a00085c0:	3e3e 2d5b 2b5d 3e3e 3e3e 5b3e 3e3e 3e3e     >>[-]+>>>>>[>>>>
a00085d0:	3e3e 3e3e 5d3e 2b3e 5d3c 2b5d 3e3e 3e3e     >>>>>]>+<]]+>>>>
a00085e0:	2d5b 3c3c 3c3c 3e2d 3e3e 5d3e 3c2b 3c3c     [-<<<<->>>>]+<<<
a00085f0:	5b3c 3e2d 3e3e 2d3e 5b3c 3c2d 3c3c 3e2b     <[->>>>-<[-<<<+>
a0008600:	3e3e 3c5d 3c3c 2d5b 3e3e 2b3e 203c 3c3c     >>]<<<[->>>+< <<
a0008610:	3c3c 3c3c 3c3c 3c3c 5b3c 3c3c 3c3c 3c3c     <<<<<<<<<[<<<<<<
a0008620:	3c3c 5d3c 3e3e 5b3e 5d2d 3e2b 3e3e 3e3e     <<<]>>>[-]+>>>>>
a0008630:	5b3e 3e3e 3e3e 3e3e 3e3e 5d3e 5b3e 5d2d     >[>>>>>>>>>]>[-]
a0008640:	3c2b 5d5d 3e2b 2d5b 5b3c 3e3e 3e3e 3e3e     +<]]+>[-<[>>>>>>
a0008650:	3e3e 5d3e 3c3c 3c3c 3c3c 3c3c 3e5d 3e20     >>>]<<<<<<<<]> >
a0008660:	3e3e 3e3e 3e3e 3c5d 3c3c 3c3c 3c3c 3c3c     >>>>>>]<<<<<<<<<
a0008670:	3c5b 3c3c 3c3c 3c3c 3c3c 3e5d 2d3e 3e3e     [<<<<<<<<<]>>->>
a0008680:	2d5b 3c3c 3c3c 3e2b 3e3e 5d3e 3c3c 3c3c     [-<<<<+>>>>]<<<<
a0008690:	2d5b 3e3e 3e3e 3c2b 5b3c 5d2d 3c3c 3e5d     [->>>>+<<[-]<<]>
a00086a0:	5d3e 3c3c 3e2b 3e3e 5b3e 3c2d 3c3c 203c     >]<<+>>>>[-<<<< 
a00086b0:	3e2d 3e3e 5d3e 3c2b 3c3c 5b3c 3e2d 3e3e     ->>>>]+<<<<[->>>
a00086c0:	2d3e 3c3c 3c3c 3c3c 3e2e 5d3e 3e3e 3e3e     >-<<<<<<.>>]>>>>
a00086d0:	2d5b 3c3c 3c3c 3c3c 2e3c 3e3e 3e3e 3e3e     [-<<<<<<<.>>>>>>
a00086e0:	5d3e 3c3c 5b3c 5d2d 5b3e 5d2d 5b3e 5d2d     >]<<<[-]>[-]>[-]
a00086f0:	5b3e 5d2d 5b3e 5d2d 5b3e 5d2d 3e3e 5b3e     >[-]>[-]>[-]>>>[
a0008700:	3e20 2d5b 3e5d 2d5b 3e5d 2d5b 3e5d 2d5b      >[-]>[-]>[-]>[-
a0008710:	3e5d 2d5b 3e5d 2d5b 3e5d 3e3e 3c5d 3c3c     ]>[-]>[-]>>>]<<<
a0008720:	3c3c 3c3c 3c3c 3c5b 3c3c 3c3c 3c3c 3c3c     <<<<<<[<<<<<<<<<
a0008730:	3e5d 3e3e 3e3e 3e3e 3e3e 3e5b 3e3e 3e3e     ]>>>>>>>>>[>>>>>
a0008740:	2d5b 3e5d 3e3e 5d3e 3c3c 3c3c 3c3c 3c3c     [-]>>>>]<<<<<<<<
a0008750:	203c 3c5b 3c3c 3c3c 3c3c 3c3c 3e5d 2b2b     < [<<<<<<<<<]>++
a0008760:	2b2b 2b2b 2b2b 2b2b 5b2b 5b2d 3e2d 3e3e     +++++++++[-[->>>
a0008770:	3e3e 3e3e 3e3e 3c2b 3c3c 3c3c 3c3c 3c3c     >>>>>>+<<<<<<<<<
a0008780:	3e5d 3e3e 3e3e 3e3e 3e3e 3e5d 3e3e 2b3e     ]>>>>>>>>>]>>>>+
a0008790:	3e3e 3e3e 3e3e 3e3e 2b3e 3c3c 3c3c 3c3c     >>>>>>>>>+<<<<<<
a00087a0:	3c3c 3c20 3c3c 3c3c 5b3c 3c3c 3c3c 3c3c     << <<<<<<[<<<<<<
a00087b0:	3c3c 5d3c 3e3e 3e3e 3e3e 5b3e 3c2d 3c3c     <<<]>>>>>>>[-<<<
a00087c0:	3c3c 3c3c 3e2b 3e3e 3e3e 3e3e 3c5d 3c3c     <<<<+>>>>>>>]<<<
a00087d0:	3c3c 3c3c 2d5b 3e3e 3e3e 3e3e 2b3e 2d5b     <<<<[->>>>>>>+[-
a00087e0:	3e5d 5b3e 3e3e 3e3e 3e3e 3e3e 5d3e 3c3c     ]>>[>>>>>>>>>]<<
a00087f0:	3c3c 203c 3c3c 3c3c 3e5b 3e3e 3e3e 3e3e     <<< <<<<[>>>>>>>
a0008800:	2d5b 3c3c 3c3c 3c3c 3e2b 3e3e 3e3e 5d3e     [-<<<<<<+>>>>>>]
a0008810:	3c3c 3c3c 3c3c 2d5b 3e3e 3e3e 3e3e 3c2b     <<<<<<[->>>>>>+<
a0008820:	3c3c 3c3c 3c3c 3c5b 3c3c 3c3c 3c3c 3c3c     <<<<<<[<<<<<<<<<
a0008830:	3e5d 3e3e 3e3e 3e3e 2d5b 2b5d 3e3e 5d3e     ]>>>>>>>[-]+>>>]
a0008840:	3c3c 3c3c 3c20 3c3c 3c3c 5d3c 3e5d 3e3e     <<<< <<<<<<]]>>>
a0008850:	3e3e 3e3e 2d5b 3c3c 3c3c 3c3c 2b3c 3e3e     >>>>[-<<<<<<<+>>
a0008860:	3e3e 3e3e 5d3e 3c3c 3c3c 3c3c 5b3c 3e2d     >>>>>]<<<<<<<[->
a0008870:	3e3e 3e3e 3e3e 3e2b 5b3e 2b3e 3e3e 3e3e     >>>>>>+>>[>+>>>>
a0008880:	2d5b 3c3c 3c3c 3e2d 3e3e 5d3e 3c3c 3c3c     [-<<<<->>>>]<<<<
a0008890:	2d5b 3e3e 203e 2b3e 3c3c 3c3c 3e5d 3e3e     [->>> >+<<<<]>>>
a00088a0:	3e3e 3e3e 5d3e 3c3c 3c2b 3c3c 3c3c 3c3c     >>>>>]<<+<<<<<<<
a00088b0:	3e5b 3e3e 3e3e 2d5b 3e3e 3c2b 5d3c 3c3c     [>>>>>[->>+<<]<<
a00088c0:	3c3c 3c3c 3c3c 3c3c 3c3c 3c3c 3e5d 3e3e     <<<<<<<<<<<<]>>>
a00088d0:	3e3e 3e3e 3e3e 3e5b 3e3e 3e3e 3e3e 3e3e     >>>>>>[>>>>>>>>>
a00088e0:	3c5d 3c3c 3c3c 3c20 3c3c 5b3c 5b3e 5d2d     ]<<<<< <<<<[>[-]
a00088f0:	2d3c 3e3e 3e3e 3e3e 5b3e 3c2d 3c3c 3c3c     <->>>>>>>[-<<<<<
a0008900:	3c3c 3e2b 3c5b 3e2d 3c2d 3c3c 3e2b 3e3e     <<+>[<->-<<<+>>>
a0008910:	3c5d 2d5b 2b3e 5d3c 3e3e 3e3e 3e3e 5d3e     ]<[->+<]>>>>>>>]
a0008920:	3c3c 3c3c 3c3c 2d5b 3e3e 3e3e 3e3e 3c2b     <<<<<<[->>>>>>+<
a0008930:	3c3c 3c3c 5d3c 203c 3c2b 3c3c 3c3c 3c3c     <<<<<]< +<<<<<<<
a0008940:	3c3c 3e5d 3e3e 3e3e 3e3e 3c2d 3c3c 5b3c     <<]>>>>>>>-<<<<[
a0008950:	5d2d 3c2b 3c3c 2b5d 3e3e 3e3e 3e3e 5b3e     -]+<<<]+>>>>>>>[
a0008960:	3c2d 3c3c 3c3c 3c3c 3e2d 3e3e 3e3e 3e3e     -<<<<<<<->>>>>>>
a0008970:	2b5d 3c3c 3c3c 3c3c 5b3c 3e2d 3e3e 3e3e     ]+<<<<<<<[->>>>>
a0008980:	3e3e 3e2d 5b3e 3e3e 3e20 3e3e 2d5b 3e3e     >>->>[>> >>>[->>
a0008990:	3c2b 5d3c 3e3e 3e3e 3c5d 3c3c 3c3c 3c3c     +<<]>>>>]<<<<<<<
a00089a0:	3c3c 3e5b 2d5b 3c5d 3e2d 3e3e 3e3e 3e3e     <<[>[-]<->>>>>>>
a00089b0:	2d5b 3c3c 3c3c 3c3c 2b3c 5b3e 2d3c 2d3e     [-<<<<<<<+>[<->-
a00089c0:	3c3c 2b3c 3e3e 5d3e 5b3c 3e2d 3c2b 3e5d     <<<+>>>]<[->+<]>
a00089d0:	3e3e 3e3e 3e3e 3c5d 203c 3c3c 3c3c 2d5b     >>>>>>]<< <<<<[-
a00089e0:	3e3e 3e3e 3e3e 3c2b 3c3c 3c3c 5d3c 2b3c     >>>>>>+<<<<<<]<+
a00089f0:	3c3c 3c3c 3c3c 3c3c 5d3c 2b3e 2b2b 2b2b     <<<<<<<<<]>+++++
a0008a00:	2d5b 2d5b 3e3e 3e3e 3e3e 3e3e 2b3e 3c3c     [-[->>>>>>>>>+<<
a0008a10:	3c3c 3c3c 3c3c 5d3c 3e3e 3e3e 3e3e 3e3e     <<<<<<<]>>>>>>>>
a0008a20:	5d3e 3e3e 3e3e 3c2b 3c3c 3c20 5b3c 3c3c     >]>>>>+<<< <<[<<
a0008a30:	3c3c 3c3c 3c3c 5d3c 3e3e 3e3e 3e3e 3e3e     <<<<<<<]>>>>>>>>
a0008a40:	5b3e 3e3e 3e3e 5b3e 3c2d 3c3c 3c3c 3e2d     >[>>>>>[-<<<<<->
a0008a50:	3e3e 3e3e 2b5d 3c3c 3c3c 5b3c 3e2d 3e3e     >>>>]+<<<<<[->>>
a0008a60:	3e3e 3e2d 5b3e 3c2d 3c3c 3c3c 3c3c 3e2b     >>->>[-<<<<<<<+>
a0008a70:	3e3e 3e3e 3e3e 3c5d 3c3c 203c 3c3c 5b3c     >>>>>>]<<<< <<<[
a0008a80:	3e2d 3e3e 3e3e 3e3e 3c2b 3c3c 3c3c 3c3c     ->>>>>>>+<<<<<<<
a0008a90:	3c3c 3c3c 3c3c 3c3c 5b3c 3c3c 3c3c 3c3c     <<<<<<<<<[<<<<<<
a0008aa0:	3c3c 5d3c 3e3e 3e3e 2d5b 2b5d 3e3e 3e3e     <<<]>>>>[-]+>>>>
a0008ab0:	5b3e 3e3e 3e3e 3e3e 3e3e 5d3e 2b3e 5d3c     >[>>>>>>>>>]>+<]
a0008ac0:	2b5d 3e3e 3e3e 3e3e 5b3e 3c2d 3c20 3c3c     ]+>>>>>>>[-< <<<
a0008ad0:	3c3c 2d3c 3e3e 3e3e 3e3e 5d3e 3c2b 3c3c     <<<->>>>>>>]+<<<
a0008ae0:	3c3c 3c3c 2d5b 3e3e 3e3e 3e3e 2d3e 3c3c     <<<<[->>>>>>>-<<
a0008af0:	2d5b 3c3c 3c3c 2b3c 3e3e 3e3e 5d3e 3c3c     [-<<<<<+>>>>>]<<
a0008b00:	3c3c 5b3c 3e2d 3e3e 3e3e 3c2b 3c3c 3c3c     <<<[->>>>>+<<<<<
a0008b10:	3c3c 3c3c 3c3c 3c3c 5b3c 3c3c 203c 3c3c     <<<<<<<<<[<<< <<
a0008b20:	3c3c 3c3c 3e5d 3e3e 2d5b 2b5d 3e3e 3e3e     <<<<]>>>[-]+>>>>
a0008b30:	3e3e 3e5b 3e3e 3e3e 3e3e 3e3e 3e5d 2d5b     >>[>>>>>>>>>]>[-
a0008b40:	2b5d 5d3c 2b5d 5b3e 3c2d 3e5b 3e3e 3e3e     ]+<]]+>[-<[>>>>>
a0008b50:	3e3e 3e3e 3c5d 3c3c 3c3c 3c3c 5d3c 3e3e     >>>>]<<<<<<<<]>>
a0008b60:	3e3e 3e3e 3e3e 3c5d 3c3c 3c3c 3c3c 3c20     >>>>>>]<<<<<<< <
a0008b70:	5b3c 3c3c 3c3c 3c3c 3c3c 5d3c 3e3e 3e3e     <[<<<<<<<<<]>>>>
a0008b80:	2d5b 3c5d 3c3c 2b2b 2b2b 5b2b 5b2d 3e2d     [-]<<<+++++[-[->
a0008b90:	3e3e 3e3e 3e3e 3e3e 3c2b 3c3c 3c3c 3c3c     >>>>>>>>+<<<<<<<
a0008ba0:	3c3c 3e5d 3e3e 3e3e 3e3e 3e3e 3e5d 3e3e     <<]>>>>>>>>>]>>>
a0008bb0:	2d3e 3c3c 3c3c 5b3c 3c3c 3c3c 3c3c 203c     >-<<<<<[<<<<<<< 
a0008bc0:	3c3c 5d5d 3e3e 5d3e 3c3c 3c3c 3e2e 3e3e     <<]]>>>]<<<<.>>>
a0008bd0:	3e3e 3e3e 3e3e 5b3e 3e3e 3e3e 3e3e 2d5b     >>>>>>>[>>>>>>[-
a0008be0:	3e5d 3e3e 3c5d 3c3c 3c3c 3c3c 3c3c 3c5b     ]>>>]<<<<<<<<<[<
a0008bf0:	3c3c 3c3c 3c3c 3c3c 3e5d 2b2b 2b2b 2b2b     <<<<<<<<]>++++++
a0008c00:	2b2b 2b2b 2d5b 2d5b 3e3e 3e3e 3e3e 3e3e     ++++[-[->>>>>>>>
a0008c10:	3e20 3c2b 3c3c 3c3c 3c3c 3c3c 3e5d 3e3e      >+<<<<<<<<<]>>>
a0008c20:	3e3e 3e3e 3e3e 3e5d 3e3e 3e3e 3e2b 3e3e     >>>>>>]>>>>>+>>>
a0008c30:	3e3e 3e3e 3e3e 3c2b 3c3c 3c3c 3c3c 3c3c     >>>>>>+<<<<<<<<<
a0008c40:	3c3c 3c3c 3c3c 3c5b 3c3c 3c3c 3c3c 3c3c     <<<<<<[<<<<<<<<<
a0008c50:	3e5d 3e3e 3e3e 3e3e 5b3e 3c2d 3c3c 3c3c     ]>>>>>>>>[-<<<<<
a0008c60:	203c 3c3c 3e2b 3e3e 3e3e 3e3e 5d3e 3c3c     < <<+>>>>>>>>]<<
a0008c70:	3c3c 3c3c 3c3c 2d5b 3e3e 3e3e 3e3e 3e3e     <<<<<<[->>>>>>>>
a0008c80:	5b2b 5d2d 5b3e 3e3e 3e3e 3e3e 3e3e 5d3e     +[-]>[>>>>>>>>>]
a0008c90:	3c3c 3c3c 3c3c 3c3c 5b3c 3e3e 3e3e 3e3e     <<<<<<<<<[>>>>>>
a0008ca0:	3e3e 2d5b 3c3c 3c3c 3c3c 2b3c 3e3e 3e3e     >>[-<<<<<<<+>>>>
a0008cb0:	3e3e 3e20 3c5d 3c3c 3c3c 3c3c 2d5b 3e3e     >> >]<<<<<<<[->>
a0008cc0:	3e3e 3e3e 2b3e 3c3c 3c3c 3c3c 3c3c 3c5b     >>>>>+<<<<<<<<[<
a0008cd0:	3c3c 3c3c 3c3c 3c3c 3e5d 3e3e 3e3e 3e3e     <<<<<<<<]>>>>>>>
a0008ce0:	5b3e 5d2d 3e2b 5d3e 3c3c 3c3c 3c3c 3c3c     >[-]+>>]<<<<<<<<
a0008cf0:	3c3c 5d5d 3e3e 3e3e 3e3e 3e3e 2d5b 3c3c     <<]]>>>>>>>>[-<<
a0008d00:	3c3c 203c 3c3c 2b3c 3e3e 3e3e 3e3e 3e3e     <<< <<<+>>>>>>>>
a0008d10:	3c5d 3c3c 3c3c 3c3c 5b3c 3e2d 3e3e 3e3e     ]<<<<<<<<[->>>>>
a0008d20:	3e3e 2b3e 5b3e 2b3e 3e3e 3e3e 5b3e 3c2d     >>>+>[>+>>>>>[-<
a0008d30:	3c3c 3c3c 3e2d 3e3e 3e3e 3c5d 3c3c 3c3c     <<<<->>>>>]<<<<<
a0008d40:	2d5b 3e3e 3e3e 2b3e 3c3c 3c3c 5d3c 3e3e     [->>>>>+<<<<<]>>
a0008d50:	3e3e 3e3e 3e20 5d3e 2b3c 3c3c 3c3c 3c3c     >>>> >>]<+<<<<<<
a0008d60:	3c3c 3e5b 3e3e 3e3e 5b3e 3e2d 2b3e 3c3c     <<[>>>>>>[->>+<<
a0008d70:	3c5d 3c3c 3c3c 3c3c 3c3c 3c3c 3c3c 3c3c     ]<<<<<<<<<<<<<<<
a0008d80:	3e5d 3e3e 3e3e 3e3e 3e3e 3e5b 3e3e 3e3e     ]>>>>>>>>>[>>>>>
a0008d90:	3e3e 3e3e 3c5d 3c3c 3c3c 3c3c 3c3c 3e5b     >>>>]<<<<<<<<<[>
a0008da0:	2d5b 3c5d 202d 3e3e 3e3e 3e3e 3e3e 2d5b     [-]<- >>>>>>>>[-
a0008db0:	3c3c 3c3c 3c3c 3c3c 3e2b 3c5b 3e2d 3c2d     <<<<<<<<+>[<->-<
a0008dc0:	2b3c 3e3e 3c5d 2d5b 2b3e 5d3c 3e3e 3e3e     <+>>]<[->+<]>>>>
a0008dd0:	3e3e 3e3e 3c5d 3c3c 3c3c 3c3c 2d5b 3e3e     >>>>]<<<<<<<[->>
a0008de0:	3e3e 3e3e 2b3e 3c3c 3c3c 3c3c 5d3c 2b3c     >>>>>+<<<<<<<]<+
a0008df0:	3c3c 3c3c 3c3c 3c20 3c3c 3e5d 3e3e 3e3e     <<<<<< <<<]>>>>>
a0008e00:	3e3e 2d3e 3c3c 3c3c 5b3c 5d2d 3c2b 3c3c     >>>-<<<<<[-]+<<<
a0008e10:	2b5d 3e3e 3e3e 3e3e 3e3e 2d5b 3c3c 3c3c     ]+>>>>>>>>[-<<<<
a0008e20:	3c3c 3c3c 3e2d 3e3e 3e3e 3e3e 5d3e 3c2b     <<<<->>>>>>>>]+<
a0008e30:	3c3c 3c3c 3c3c 5b3c 3e2d 3e3e 3e3e 3e3e     <<<<<<<[->>>>>>>
a0008e40:	2d3e 5b3e 3e3e 203e 3e3e 5b3e 3e2d 2b3e     >->[>>> >>>[->>+
a0008e50:	3c3c 3e5d 3e3e 3c5d 3c3c 3c3c 3c3c 3c3c     <<]>>>]<<<<<<<<<
a0008e60:	3e5b 2d5b 3c5d 3e2d 3e3e 3e3e 3e3e 5b3e     [>[-]<->>>>>>>>[
a0008e70:	3c2d 3c3c 3c3c 3c3c 2b3c 5b3e 2d3c 2d3e     -<<<<<<<<+>[<->-
a0008e80:	3c3c 3e2b 5d3e 5b3c 3e2d 3c2b 3e5d 3e3e     <<+>>]<[->+<]>>>
a0008e90:	3e3e 3e3e 5d3e 3c3c 3c20 3c3c 3c3c 2d5b     >>>>>]<< <<<<<[-
a0008ea0:	3e3e 3e3e 3e3e 2b3e 3c3c 3c3c 3c3c 5d3c     >>>>>>>+<<<<<<<]
a0008eb0:	2b3c 3c3c 3c3c 3c3c 3c3c 5d3c 2b3e 2b2b     <+<<<<<<<<<]>+++
a0008ec0:	2b2b 2d5b 2d5b 3e3e 3e3e 3e3e 3e3e 2b3e     ++[-[->>>>>>>>>+
a0008ed0:	3c3c 3c3c 3c3c 3c3c 5d3c 3e3e 3e3e 3e3e     <<<<<<<<<]>>>>>>
a0008ee0:	3e3e 5d3e 3e3e 3e3e 203e 3e2b 3e3e 3e3e     >>>]>>>>> +>>>>>
a0008ef0:	3e3e 3e3e 3e3e 3e3e 3e3e 3e3e 3e3e 3e3e     >>>>>>>>>>>>>>>>
a0008f00:	3e3e 3e3e 3e3e 3c2b 3c3c 3c3c 5b3c 3c3c     >>>>>>+<<<<<<[<<
a0008f10:	3c3c 3c3c 3c3c 5d3c 3e3e 3e3e 3e3e 3e3e     <<<<<<<]>>>>>>>>
a0008f20:	5b3e 3e3e 3e3e 3e3e 2d5b 3c3c 3c3c 3c3c     >[>>>>>>[-<<<<<<
a0008f30:	3e2d 3e3e 3e3e 5d3e 3c2b 3c20 3c3c 3c3c     ->>>>>>]+< <<<<<
a0008f40:	2d5b 3e3e 3e3e 3e3e 3e2d 5b3e 3c2d 3c3c     [->>>>>>->>[-<<<
a0008f50:	3c3c 3c3c 2b3c 3e3e 3e3e 3e3e 3e3e 3c5d     <<<<<+>>>>>>>>]<
a0008f60:	3c3c 3c3c 3c3c 5b3c 3e2d 3e3e 3e3e 3e3e     <<<<<<<[->>>>>>>
a0008f70:	2b3e 3c3c 3c3c 3c3c 3c3c 3c3c 3c3c 3c3c     >+<<<<<<<<<<<<<<
a0008f80:	3c3c 5b3c 3c3c 3c3c 3c3c 203c 3c3c 3e5d     <<<[<<<<<<< <<]>
a0008f90:	3e3e 5b3e 5d2d 3e2b 3e3e 3e3e 3e5b 3e3e     >>>[-]+>>>>>[>>>
a0008fa0:	3e3e 3e3e 3e3e 3e5d 3c2b 5d5d 3e2b 3e3e     >>>>>>]>+<]]+>>>
a0008fb0:	3e3e 3e3e 5b3e 3c2d 3c3c 3c3c 3c3c 2d3c     >>>>>[-<<<<<<<<-
a0008fc0:	3e3e 3e3e 3e3e 3e3e 2b5d 3c3c 3c3c 3c3c     >>>>>>>>]+<<<<<<
a0008fd0:	3c3c 2d5b 3e3e 3e3e 3e3e 3e3e 2d20 3c3c     <<[->>>>>>>> -<<
a0008fe0:	2d5b 3c3c 3c3c 3c3c 3e2b 3e3e 3e3e 5d3e     [-<<<<<<+>>>>>>]
a0008ff0:	3c3c 3c3c 3c3c 2d5b 3e3e 3e3e 3e3e 3c2b     <<<<<<[->>>>>>+<
a0009000:	3c3c 3c3c 3c3c 3c3c 3c3c 3c3c 3c3c 3c5b     <<<<<<<<<<<<<<[<
a0009010:	3c3c 3c3c 3c3c 3c3c 3e5d 3e3e 2d5b 2b5d     <<<<<<<<]>>>[-]+
a0009020:	3e3e 3e3e 3e3e 3e5b 3e3e 3e3e 203e 3e3e     >>>>>>[>>>>>> >>
a0009030:	5d3e 5b3e 5d2d 3c2b 5d5d 3e2b 2d5b 5b3c     >]>[-]+<]]+>[-<[
a0009040:	3e3e 3e3e 3e3e 3e3e 5d3e 3c3c 3c3c 3c3c     >>>>>>>>>]<<<<<<
a0009050:	3c3c 3e5d 3e3e 3e3e 3e3e 5d3e 3c3c 3c3c     <<]>>>>>>>>]<<<<
a0009060:	3c3c 3c3c 5b3c 3c3c 3c3c 3c3c 3c3c 5d3c     <<<<<[<<<<<<<<<]
a0009070:	3e3e 3e3e 2d5b 3c5d 3c3c 2b2b 2b2b 2b20     >>>>[-]<<<++++ +
a0009080:	2d5b 2d5b 3e3e 3e3e 3e3e 3e3e 2b3e 3c3c     [-[->>>>>>>>>+<<
a0009090:	3c3c 3c3c 3c3c 5d3c 3e3e 3e3e 3e3e 3e3e     <<<<<<<]>>>>>>>>
a00090a0:	5d3e 3e3e 3e3e 2d3e 3e3e 3e3e 3e3e 3e3e     >]>>>>>->>>>>>>>
a00090b0:	3e3e 3e3e 3e3e 3e3e 3e3e 3e3e 3e3e 3e3e     >>>>>>>>>>>>>>>>
a00090c0:	3e3e 2d3e 3c3c 3c3c 3c3c 3c5b 3c3c 203c     >>>-<<<<<<[<<<< 
a00090d0:	3c3c 3c3c 5d3c 3e5d 3e3e 005d 616d 6c6c     <<<<<]]>>>].mall
a00090e0:	636f 6620 6961 656c 2164 6520 6978 6974     oc failed! exiti
a00090f0:	676e 2e2e 0a2e 0000 6948 2074 7473 7261     ng......Hit star
a0009100:	2074 666f 7420 7061 0a65 0000 919c ffff     t of tape.......
a0009110:	928c ffff 9270 ffff 9238 ffff 91ac ffff     ....p...8.......
a0009120:	91ac ffff 91ac ffff 91ac ffff 91ac ffff     ................
a0009130:	91ac ffff 91ac ffff 91ac ffff 91ac ffff     ................
a0009140:	91ac ffff 91ac ffff 91ac ffff 91ac ffff     ................
a0009150:	9214 ffff 91ac ffff 91f8 ffff 91ac ffff     ................
a0009160:	91ac ffff 91ac ffff 91ac ffff 91ac ffff     ................
a0009170:	91ac ffff 91ac ffff 91ac ffff 91ac ffff     ................
a0009180:	91ac ffff 91ac ffff 91ac ffff 91ac ffff     ................
a0009190:	91ac ffff 91ac ffff 91ac ffff 91ac ffff     ................
a00091a0:	91ac ffff 91ac ffff 91ac ffff 91ac ffff     ................
a00091b0:	91ac ffff 91ac ffff 91ac ffff 91ac ffff     ................
a00091c0:	91ac ffff 91ac ffff 91ac ffff 91e4 ffff     ................
a00091d0:	91ac ffff 91c8 ffff 2c2e 7e2d 3b3a 213d     .........,-~:;=!
a00091e0:	232a 4024 0000 0000 4d41 5020 6e61 6369     *#$@....AM Panic
a00091f0:	203a 0000 6361 6563 7373 6e20 6e6f 7865     : ..access nonex
a0009200:	7369 2074 6572 6967 7473 7265 0000 0000     ist register....
a0009210:	4020 2f20 6f68 656d 742f 7475 7475 2f75      @ /home/tututu/
a0009220:	7268 2f79 7379 7879 792f 7973 2d78 6f77     hry/ysyx/ysyx-wo
a0009230:	6b72 6562 636e 2f68 6261 7473 6172 7463     rkbench/abstract
a0009240:	6d2d 6361 6968 656e 612f 2f6d 7273 2f63     -machine/am/src/
a0009250:	6972 6373 2f76 7379 7879 6f73 2f63 6f69     riscv/ysyxsoc/io
a0009260:	2e65 3a63 3933 2020 000a 0000 aa00 ffff     e.c:39  ........
a0009270:	aa94 ffff aa94 ffff aa94 ffff aa94 ffff     ................
a0009280:	aa94 ffff aa94 ffff aa94 ffff aa94 ffff     ................
a0009290:	aa94 ffff aa94 ffff ab68 ffff aafc ffff     ........h.......
a00092a0:	aa94 ffff aa94 ffff aa94 ffff aa94 ffff     ................
a00092b0:	aa94 ffff aa94 ffff aa94 ffff aa94 ffff     ................
a00092c0:	aa94 ffff aa94 ffff aa94 ffff aa94 ffff     ................
a00092d0:	aa94 ffff aa94 ffff aa9c ffff aa94 ffff     ................
a00092e0:	ab7c ffff aa94 ffff aa94 ffff aa00 ffff     |...............
a00092f0:	682f 6d6f 2f65 7574 7574 7574 682f 7972     /home/tututu/hry
a0009300:	792f 7973 2f78 7379 7879 772d 726f 626b     /ysyx/ysyx-workb
a0009310:	6e65 6863 612f 7362 7274 6361 2d74 616d     ench/abstract-ma
a0009320:	6863 6e69 2f65 6c6b 6269 732f 6372 732f     chine/klib/src/s
a0009330:	6474 6f69 632e 0000 7341 6573 7472 6f69     tdio.c..Assertio
a0009340:	206e 6166 6c69 6120 2074 7325 253a 0a64     n fail at %s:%d.
a0009350:	0000 0000                                   ....

a0009354 <mainargs>:
a0009354:	0033                                        3.
