
/home/tututu/hry/ysyx/ysyx-workbench/am-kernels/kernels/yield-os/build/yield-os-riscv32e-npc.elf:     file format elf32-littleriscv


Disassembly of section .text:

80000000 <_start>:
80000000:	00000413          	li	s0,0
80000004:	00022117          	auipc	sp,0x22
80000008:	ffc10113          	addi	sp,sp,-4 # 80022000 <_end>
8000000c:	17c000ef          	jal	ra,80000188 <_trm_init>

80000010 <schedule>:
80000010:	00001717          	auipc	a4,0x1
80000014:	1a870713          	addi	a4,a4,424 # 800011b8 <current>
80000018:	00072683          	lw	a3,0(a4)
8000001c:	00001617          	auipc	a2,0x1
80000020:	1a060613          	addi	a2,a2,416 # 800011bc <pcb>
80000024:	00009797          	auipc	a5,0x9
80000028:	19878793          	addi	a5,a5,408 # 800091bc <pcb+0x8000>
8000002c:	00b6a023          	sw	a1,0(a3)
80000030:	00c68463          	beq	a3,a2,80000038 <schedule+0x28>
80000034:	00060793          	mv	a5,a2
80000038:	0007a503          	lw	a0,0(a5)
8000003c:	00f72023          	sw	a5,0(a4)
80000040:	00008067          	ret

80000044 <f>:
80000044:	ff010113          	addi	sp,sp,-16
80000048:	00112623          	sw	ra,12(sp)
8000004c:	00812423          	sw	s0,8(sp)
80000050:	00200793          	li	a5,2
80000054:	00050713          	mv	a4,a0
80000058:	00a7f463          	bgeu	a5,a0,80000060 <f+0x1c>
8000005c:	00000713          	li	a4,0
80000060:	00001797          	auipc	a5,0x1
80000064:	f9c78793          	addi	a5,a5,-100 # 80000ffc <_etext>
80000068:	00e787b3          	add	a5,a5,a4
8000006c:	0007c403          	lbu	s0,0(a5)
80000070:	00040513          	mv	a0,s0
80000074:	100000ef          	jal	ra,80000174 <putch>
80000078:	00012023          	sw	zero,0(sp)
8000007c:	00012703          	lw	a4,0(sp)
80000080:	3e700793          	li	a5,999
80000084:	00e7ce63          	blt	a5,a4,800000a0 <f+0x5c>
80000088:	3e700713          	li	a4,999
8000008c:	00012783          	lw	a5,0(sp)
80000090:	00178793          	addi	a5,a5,1
80000094:	00f12023          	sw	a5,0(sp)
80000098:	00012783          	lw	a5,0(sp)
8000009c:	fef758e3          	bge	a4,a5,8000008c <f+0x48>
800000a0:	1fc000ef          	jal	ra,8000029c <yield>
800000a4:	fcdff06f          	j	80000070 <f+0x2c>

800000a8 <main>:
800000a8:	fe410113          	addi	sp,sp,-28
800000ac:	00000517          	auipc	a0,0x0
800000b0:	f6450513          	addi	a0,a0,-156 # 80000010 <schedule>
800000b4:	00112c23          	sw	ra,24(sp)
800000b8:	00812a23          	sw	s0,20(sp)
800000bc:	00912823          	sw	s1,16(sp)
800000c0:	00009417          	auipc	s0,0x9
800000c4:	0fc40413          	addi	s0,s0,252 # 800091bc <pcb+0x8000>
800000c8:	188000ef          	jal	ra,80000250 <cte_init>
800000cc:	00001497          	auipc	s1,0x1
800000d0:	0f048493          	addi	s1,s1,240 # 800011bc <pcb>
800000d4:	00040593          	mv	a1,s0
800000d8:	00100693          	li	a3,1
800000dc:	00000617          	auipc	a2,0x0
800000e0:	f6860613          	addi	a2,a2,-152 # 80000044 <f>
800000e4:	00048513          	mv	a0,s1
800000e8:	188000ef          	jal	ra,80000270 <kcontext>
800000ec:	00050793          	mv	a5,a0
800000f0:	00200693          	li	a3,2
800000f4:	00000617          	auipc	a2,0x0
800000f8:	f5060613          	addi	a2,a2,-176 # 80000044 <f>
800000fc:	00011597          	auipc	a1,0x11
80000100:	0c058593          	addi	a1,a1,192 # 800111bc <pcb_boot>
80000104:	00040513          	mv	a0,s0
80000108:	00f4a023          	sw	a5,0(s1)
8000010c:	164000ef          	jal	ra,80000270 <kcontext>
80000110:	00a42023          	sw	a0,0(s0)
80000114:	188000ef          	jal	ra,8000029c <yield>
80000118:	00001417          	auipc	s0,0x1
8000011c:	ee840413          	addi	s0,s0,-280 # 80001000 <_etext+0x4>
80000120:	04100513          	li	a0,65
80000124:	00140413          	addi	s0,s0,1
80000128:	04c000ef          	jal	ra,80000174 <putch>
8000012c:	00044503          	lbu	a0,0(s0)
80000130:	fe051ae3          	bnez	a0,80000124 <main+0x7c>
80000134:	00001417          	auipc	s0,0x1
80000138:	ed840413          	addi	s0,s0,-296 # 8000100c <_etext+0x10>
8000013c:	05300513          	li	a0,83
80000140:	00140413          	addi	s0,s0,1
80000144:	030000ef          	jal	ra,80000174 <putch>
80000148:	00044503          	lbu	a0,0(s0)
8000014c:	fe051ae3          	bnez	a0,80000140 <main+0x98>
80000150:	00001417          	auipc	s0,0x1
80000154:	ed440413          	addi	s0,s0,-300 # 80001024 <_etext+0x28>
80000158:	02000513          	li	a0,32
8000015c:	00140413          	addi	s0,s0,1
80000160:	014000ef          	jal	ra,80000174 <putch>
80000164:	00044503          	lbu	a0,0(s0)
80000168:	fe051ae3          	bnez	a0,8000015c <main+0xb4>
8000016c:	00100513          	li	a0,1
80000170:	010000ef          	jal	ra,80000180 <halt>

80000174 <putch>:
80000174:	a00007b7          	lui	a5,0xa0000
80000178:	3ea78c23          	sb	a0,1016(a5) # a00003f8 <_end+0x1ffde3f8>
8000017c:	00008067          	ret

80000180 <halt>:
80000180:	00100073          	ebreak
80000184:	0000006f          	j	80000184 <halt+0x4>

80000188 <_trm_init>:
80000188:	ff410113          	addi	sp,sp,-12
8000018c:	00001517          	auipc	a0,0x1
80000190:	02850513          	addi	a0,a0,40 # 800011b4 <mainargs>
80000194:	00112423          	sw	ra,8(sp)
80000198:	f11ff0ef          	jal	ra,800000a8 <main>
8000019c:	00100073          	ebreak
800001a0:	0000006f          	j	800001a0 <_trm_init+0x18>

800001a4 <__am_irq_handle>:
800001a4:	00019797          	auipc	a5,0x19
800001a8:	0187a783          	lw	a5,24(a5) # 800191bc <user_handler>
800001ac:	00050593          	mv	a1,a0
800001b0:	06078e63          	beqz	a5,8000022c <__am_irq_handle+0x88>
800001b4:	04052683          	lw	a3,64(a0)
800001b8:	fd410113          	addi	sp,sp,-44
800001bc:	02112423          	sw	ra,40(sp)
800001c0:	00012a23          	sw	zero,20(sp)
800001c4:	00012c23          	sw	zero,24(sp)
800001c8:	00012e23          	sw	zero,28(sp)
800001cc:	00b00713          	li	a4,11
800001d0:	04e68263          	beq	a3,a4,80000214 <__am_irq_handle+0x70>
800001d4:	00400713          	li	a4,4
800001d8:	00e12823          	sw	a4,16(sp)
800001dc:	01012703          	lw	a4,16(sp)
800001e0:	00010513          	mv	a0,sp
800001e4:	00e12023          	sw	a4,0(sp)
800001e8:	01412703          	lw	a4,20(sp)
800001ec:	00e12223          	sw	a4,4(sp)
800001f0:	01812703          	lw	a4,24(sp)
800001f4:	00e12423          	sw	a4,8(sp)
800001f8:	01c12703          	lw	a4,28(sp)
800001fc:	00e12623          	sw	a4,12(sp)
80000200:	000780e7          	jalr	a5
80000204:	02050663          	beqz	a0,80000230 <__am_irq_handle+0x8c>
80000208:	02812083          	lw	ra,40(sp)
8000020c:	02c10113          	addi	sp,sp,44
80000210:	00008067          	ret
80000214:	04852703          	lw	a4,72(a0)
80000218:	00100693          	li	a3,1
8000021c:	00d12823          	sw	a3,16(sp)
80000220:	00470713          	addi	a4,a4,4
80000224:	04e52423          	sw	a4,72(a0)
80000228:	fb5ff06f          	j	800001dc <__am_irq_handle+0x38>
8000022c:	00008067          	ret
80000230:	01500613          	li	a2,21
80000234:	00001597          	auipc	a1,0x1
80000238:	e4858593          	addi	a1,a1,-440 # 8000107c <_etext+0x80>
8000023c:	00001517          	auipc	a0,0x1
80000240:	e9050513          	addi	a0,a0,-368 # 800010cc <_etext+0xd0>
80000244:	624000ef          	jal	ra,80000868 <printf>
80000248:	00100513          	li	a0,1
8000024c:	f35ff0ef          	jal	ra,80000180 <halt>

80000250 <cte_init>:
80000250:	00050793          	mv	a5,a0
80000254:	00000717          	auipc	a4,0x0
80000258:	05470713          	addi	a4,a4,84 # 800002a8 <__am_asm_trap>
8000025c:	30571073          	.4byte	0x30571073
80000260:	00100513          	li	a0,1
80000264:	00019717          	auipc	a4,0x19
80000268:	f4f72c23          	sw	a5,-168(a4) # 800191bc <user_handler>
8000026c:	00008067          	ret

80000270 <kcontext>:
80000270:	000027b7          	lui	a5,0x2
80000274:	80078793          	addi	a5,a5,-2048 # 1800 <_entry_offset+0x1800>
80000278:	fb058713          	addi	a4,a1,-80
8000027c:	fec5ac23          	sw	a2,-8(a1)
80000280:	fef5aa23          	sw	a5,-12(a1)
80000284:	fcd5ac23          	sw	a3,-40(a1)
80000288:	ff810113          	addi	sp,sp,-8
8000028c:	00e52023          	sw	a4,0(a0)
80000290:	00070513          	mv	a0,a4
80000294:	00810113          	addi	sp,sp,8
80000298:	00008067          	ret

8000029c <yield>:
8000029c:	fff00793          	li	a5,-1
800002a0:	00000073          	ecall
800002a4:	00008067          	ret

800002a8 <__am_asm_trap>:
800002a8:	fb010113          	addi	sp,sp,-80
800002ac:	00112223          	sw	ra,4(sp)
800002b0:	00312623          	sw	gp,12(sp)
800002b4:	00412823          	sw	tp,16(sp)
800002b8:	00512a23          	sw	t0,20(sp)
800002bc:	00612c23          	sw	t1,24(sp)
800002c0:	00712e23          	sw	t2,28(sp)
800002c4:	02812023          	sw	s0,32(sp)
800002c8:	02912223          	sw	s1,36(sp)
800002cc:	02a12423          	sw	a0,40(sp)
800002d0:	02b12623          	sw	a1,44(sp)
800002d4:	02c12823          	sw	a2,48(sp)
800002d8:	02d12a23          	sw	a3,52(sp)
800002dc:	02e12c23          	sw	a4,56(sp)
800002e0:	02f12e23          	sw	a5,60(sp)
800002e4:	342022f3          	.4byte	0x342022f3
800002e8:	30002373          	.4byte	0x30002373
800002ec:	341023f3          	.4byte	0x341023f3
800002f0:	04512023          	sw	t0,64(sp)
800002f4:	04612223          	sw	t1,68(sp)
800002f8:	04712423          	sw	t2,72(sp)
800002fc:	00010513          	mv	a0,sp
80000300:	ea5ff0ef          	jal	ra,800001a4 <__am_irq_handle>
80000304:	00050113          	mv	sp,a0
80000308:	04412303          	lw	t1,68(sp)
8000030c:	04812383          	lw	t2,72(sp)
80000310:	30031073          	.4byte	0x30031073
80000314:	34139073          	.4byte	0x34139073
80000318:	00412083          	lw	ra,4(sp)
8000031c:	00c12183          	lw	gp,12(sp)
80000320:	01012203          	lw	tp,16(sp)
80000324:	01412283          	lw	t0,20(sp)
80000328:	01812303          	lw	t1,24(sp)
8000032c:	01c12383          	lw	t2,28(sp)
80000330:	02012403          	lw	s0,32(sp)
80000334:	02412483          	lw	s1,36(sp)
80000338:	02812503          	lw	a0,40(sp)
8000033c:	02c12583          	lw	a1,44(sp)
80000340:	03012603          	lw	a2,48(sp)
80000344:	03412683          	lw	a3,52(sp)
80000348:	03812703          	lw	a4,56(sp)
8000034c:	03c12783          	lw	a5,60(sp)
80000350:	05010113          	addi	sp,sp,80
80000354:	30200073          	mret
80000358:	0000                	.2byte	0x0
	...

8000035c <klib_itoa.part.0>:
8000035c:	fbc10113          	addi	sp,sp,-68
80000360:	02812e23          	sw	s0,60(sp)
80000364:	04112023          	sw	ra,64(sp)
80000368:	02912c23          	sw	s1,56(sp)
8000036c:	00d12623          	sw	a3,12(sp)
80000370:	00e12823          	sw	a4,16(sp)
80000374:	00f12a23          	sw	a5,20(sp)
80000378:	00058313          	mv	t1,a1
8000037c:	00050293          	mv	t0,a0
80000380:	00060413          	mv	s0,a2
80000384:	1a05c063          	bltz	a1,80000524 <klib_itoa.part.0+0x1c8>
80000388:	00012823          	sw	zero,16(sp)
8000038c:	41f45493          	srai	s1,s0,0x1f
80000390:	00000793          	li	a5,0
80000394:	00040613          	mv	a2,s0
80000398:	00048693          	mv	a3,s1
8000039c:	00028513          	mv	a0,t0
800003a0:	00030593          	mv	a1,t1
800003a4:	00f12423          	sw	a5,8(sp)
800003a8:	00512223          	sw	t0,4(sp)
800003ac:	00612023          	sw	t1,0(sp)
800003b0:	201000ef          	jal	ra,80000db0 <__moddi3>
800003b4:	00012303          	lw	t1,0(sp)
800003b8:	00412283          	lw	t0,4(sp)
800003bc:	00050713          	mv	a4,a0
800003c0:	00040613          	mv	a2,s0
800003c4:	00048693          	mv	a3,s1
800003c8:	00028513          	mv	a0,t0
800003cc:	00030593          	mv	a1,t1
800003d0:	00e12023          	sw	a4,0(sp)
800003d4:	165000ef          	jal	ra,80000d38 <__divdi3>
800003d8:	00012703          	lw	a4,0(sp)
800003dc:	00050293          	mv	t0,a0
800003e0:	00900693          	li	a3,9
800003e4:	0ff77513          	zext.b	a0,a4
800003e8:	00812783          	lw	a5,8(sp)
800003ec:	03050613          	addi	a2,a0,48
800003f0:	00058313          	mv	t1,a1
800003f4:	10e6d863          	bge	a3,a4,80000504 <klib_itoa.part.0+0x1a8>
800003f8:	00c12703          	lw	a4,12(sp)
800003fc:	03750613          	addi	a2,a0,55
80000400:	05750513          	addi	a0,a0,87
80000404:	10071063          	bnez	a4,80000504 <klib_itoa.part.0+0x1a8>
80000408:	0ff57613          	zext.b	a2,a0
8000040c:	00178713          	addi	a4,a5,1
80000410:	01870693          	addi	a3,a4,24
80000414:	002685b3          	add	a1,a3,sp
80000418:	fec58fa3          	sb	a2,-1(a1)
8000041c:	00070613          	mv	a2,a4
80000420:	00605663          	blez	t1,8000042c <klib_itoa.part.0+0xd0>
80000424:	00070793          	mv	a5,a4
80000428:	f6dff06f          	j	80000394 <klib_itoa.part.0+0x38>
8000042c:	00031463          	bnez	t1,80000434 <klib_itoa.part.0+0xd8>
80000430:	fe029ae3          	bnez	t0,80000424 <klib_itoa.part.0+0xc8>
80000434:	01012683          	lw	a3,16(sp)
80000438:	02068463          	beqz	a3,80000460 <klib_itoa.part.0+0x104>
8000043c:	04412683          	lw	a3,68(sp)
80000440:	10069063          	bnez	a3,80000540 <klib_itoa.part.0+0x1e4>
80000444:	02070693          	addi	a3,a4,32
80000448:	01810613          	addi	a2,sp,24
8000044c:	00c686b3          	add	a3,a3,a2
80000450:	02d00613          	li	a2,45
80000454:	fec68023          	sb	a2,-32(a3)
80000458:	00170713          	addi	a4,a4,1
8000045c:	00278613          	addi	a2,a5,2
80000460:	01760793          	addi	a5,a2,23
80000464:	002786b3          	add	a3,a5,sp
80000468:	04412783          	lw	a5,68(sp)
8000046c:	0ef65263          	bge	a2,a5,80000550 <klib_itoa.part.0+0x1f4>
80000470:	01412783          	lw	a5,20(sp)
80000474:	02000313          	li	t1,32
80000478:	0a079263          	bnez	a5,8000051c <klib_itoa.part.0+0x1c0>
8000047c:	04412583          	lw	a1,68(sp)
80000480:	01012503          	lw	a0,16(sp)
80000484:	04812403          	lw	s0,72(sp)
80000488:	00060793          	mv	a5,a2
8000048c:	fff58293          	addi	t0,a1,-1
80000490:	00058393          	mv	t2,a1
80000494:	40c785b3          	sub	a1,a5,a2
80000498:	00b405b3          	add	a1,s0,a1
8000049c:	00030493          	mv	s1,t1
800004a0:	00050863          	beqz	a0,800004b0 <klib_itoa.part.0+0x154>
800004a4:	02d00493          	li	s1,45
800004a8:	00f28463          	beq	t0,a5,800004b0 <klib_itoa.part.0+0x154>
800004ac:	00030493          	mv	s1,t1
800004b0:	00958023          	sb	s1,0(a1)
800004b4:	00178793          	addi	a5,a5,1
800004b8:	fc77cee3          	blt	a5,t2,80000494 <klib_itoa.part.0+0x138>
800004bc:	04412783          	lw	a5,68(sp)
800004c0:	00100513          	li	a0,1
800004c4:	04f64463          	blt	a2,a5,8000050c <klib_itoa.part.0+0x1b0>
800004c8:	04812783          	lw	a5,72(sp)
800004cc:	00a78533          	add	a0,a5,a0
800004d0:	00e50733          	add	a4,a0,a4
800004d4:	0006c783          	lbu	a5,0(a3)
800004d8:	00150513          	addi	a0,a0,1
800004dc:	fff68693          	addi	a3,a3,-1
800004e0:	fef50fa3          	sb	a5,-1(a0)
800004e4:	fee518e3          	bne	a0,a4,800004d4 <klib_itoa.part.0+0x178>
800004e8:	04812783          	lw	a5,72(sp)
800004ec:	04012083          	lw	ra,64(sp)
800004f0:	03c12403          	lw	s0,60(sp)
800004f4:	03812483          	lw	s1,56(sp)
800004f8:	40f50533          	sub	a0,a0,a5
800004fc:	04410113          	addi	sp,sp,68
80000500:	00008067          	ret
80000504:	0ff67613          	zext.b	a2,a2
80000508:	f05ff06f          	j	8000040c <klib_itoa.part.0+0xb0>
8000050c:	40c78533          	sub	a0,a5,a2
80000510:	04812783          	lw	a5,72(sp)
80000514:	00a78533          	add	a0,a5,a0
80000518:	fb9ff06f          	j	800004d0 <klib_itoa.part.0+0x174>
8000051c:	03000313          	li	t1,48
80000520:	f5dff06f          	j	8000047c <klib_itoa.part.0+0x120>
80000524:	00100793          	li	a5,1
80000528:	e6f710e3          	bne	a4,a5,80000388 <klib_itoa.part.0+0x2c>
8000052c:	00a037b3          	snez	a5,a0
80000530:	40b00333          	neg	t1,a1
80000534:	40f30333          	sub	t1,t1,a5
80000538:	40a002b3          	neg	t0,a0
8000053c:	e51ff06f          	j	8000038c <klib_itoa.part.0+0x30>
80000540:	f0d752e3          	bge	a4,a3,80000444 <klib_itoa.part.0+0xe8>
80000544:	01878793          	addi	a5,a5,24
80000548:	002786b3          	add	a3,a5,sp
8000054c:	f25ff06f          	j	80000470 <klib_itoa.part.0+0x114>
80000550:	04812503          	lw	a0,72(sp)
80000554:	f7dff06f          	j	800004d0 <klib_itoa.part.0+0x174>

80000558 <vsnprintf>:
80000558:	2e058263          	beqz	a1,8000083c <vsnprintf+0x2e4>
8000055c:	fbc10113          	addi	sp,sp,-68
80000560:	02812e23          	sw	s0,60(sp)
80000564:	04112023          	sw	ra,64(sp)
80000568:	02912c23          	sw	s1,56(sp)
8000056c:	00060313          	mv	t1,a2
80000570:	00064603          	lbu	a2,0(a2)
80000574:	00050413          	mv	s0,a0
80000578:	2e060463          	beqz	a2,80000860 <vsnprintf+0x308>
8000057c:	00100793          	li	a5,1
80000580:	00058393          	mv	t2,a1
80000584:	2cf58e63          	beq	a1,a5,80000860 <vsnprintf+0x308>
80000588:	02500793          	li	a5,37
8000058c:	00068493          	mv	s1,a3
80000590:	00100293          	li	t0,1
80000594:	02f60663          	beq	a2,a5,800005c0 <vsnprintf+0x68>
80000598:	00130313          	addi	t1,t1,1
8000059c:	00140793          	addi	a5,s0,1
800005a0:	00128293          	addi	t0,t0,1
800005a4:	00c40023          	sb	a2,0(s0)
800005a8:	00034603          	lbu	a2,0(t1)
800005ac:	10060e63          	beqz	a2,800006c8 <vsnprintf+0x170>
800005b0:	1072fc63          	bgeu	t0,t2,800006c8 <vsnprintf+0x170>
800005b4:	00078413          	mv	s0,a5
800005b8:	02500793          	li	a5,37
800005bc:	fcf61ee3          	bne	a2,a5,80000598 <vsnprintf+0x40>
800005c0:	00134603          	lbu	a2,1(t1)
800005c4:	08060063          	beqz	a2,80000644 <vsnprintf+0xec>
800005c8:	00230313          	addi	t1,t1,2
800005cc:	00000793          	li	a5,0
800005d0:	fd060713          	addi	a4,a2,-48
800005d4:	0ff77713          	zext.b	a4,a4
800005d8:	00900693          	li	a3,9
800005dc:	00000593          	li	a1,0
800005e0:	02e6fa63          	bgeu	a3,a4,80000614 <vsnprintf+0xbc>
800005e4:	0e060463          	beqz	a2,800006cc <vsnprintf+0x174>
800005e8:	fa860693          	addi	a3,a2,-88
800005ec:	0ff6f713          	zext.b	a4,a3
800005f0:	02000513          	li	a0,32
800005f4:	0ee56a63          	bltu	a0,a4,800006e8 <vsnprintf+0x190>
800005f8:	00001517          	auipc	a0,0x1
800005fc:	af050513          	addi	a0,a0,-1296 # 800010e8 <_etext+0xec>
80000600:	00271713          	slli	a4,a4,0x2
80000604:	00a70733          	add	a4,a4,a0
80000608:	00072703          	lw	a4,0(a4)
8000060c:	00a70733          	add	a4,a4,a0
80000610:	00070067          	jr	a4
80000614:	00259713          	slli	a4,a1,0x2
80000618:	00b70733          	add	a4,a4,a1
8000061c:	00171713          	slli	a4,a4,0x1
80000620:	00130313          	addi	t1,t1,1
80000624:	00c70733          	add	a4,a4,a2
80000628:	fff34603          	lbu	a2,-1(t1)
8000062c:	fd070713          	addi	a4,a4,-48
80000630:	00e585b3          	add	a1,a1,a4
80000634:	fd060713          	addi	a4,a2,-48
80000638:	0ff77713          	zext.b	a4,a4
8000063c:	fce6fce3          	bgeu	a3,a4,80000614 <vsnprintf+0xbc>
80000640:	fa5ff06f          	j	800005e4 <vsnprintf+0x8c>
80000644:	00234603          	lbu	a2,2(t1)
80000648:	00100793          	li	a5,1
8000064c:	00330313          	addi	t1,t1,3
80000650:	f81ff06f          	j	800005d0 <vsnprintf+0x78>
80000654:	0004a503          	lw	a0,0(s1)
80000658:	01810713          	addi	a4,sp,24
8000065c:	00e12223          	sw	a4,4(sp)
80000660:	00b12023          	sw	a1,0(sp)
80000664:	01000613          	li	a2,16
80000668:	00000713          	li	a4,0
8000066c:	0016b693          	seqz	a3,a3
80000670:	00000593          	li	a1,0
80000674:	00712623          	sw	t2,12(sp)
80000678:	00512423          	sw	t0,8(sp)
8000067c:	00612823          	sw	t1,16(sp)
80000680:	cddff0ef          	jal	ra,8000035c <klib_itoa.part.0>
80000684:	00812283          	lw	t0,8(sp)
80000688:	00c12383          	lw	t2,12(sp)
8000068c:	00448493          	addi	s1,s1,4
80000690:	00550633          	add	a2,a0,t0
80000694:	02767c63          	bgeu	a2,t2,800006cc <vsnprintf+0x174>
80000698:	01012303          	lw	t1,16(sp)
8000069c:	1aa05663          	blez	a0,80000848 <vsnprintf+0x2f0>
800006a0:	01810713          	addi	a4,sp,24
800006a4:	00a407b3          	add	a5,s0,a0
800006a8:	00074683          	lbu	a3,0(a4)
800006ac:	00140413          	addi	s0,s0,1
800006b0:	00170713          	addi	a4,a4,1
800006b4:	fed40fa3          	sb	a3,-1(s0)
800006b8:	fef418e3          	bne	s0,a5,800006a8 <vsnprintf+0x150>
800006bc:	00060293          	mv	t0,a2
800006c0:	00034603          	lbu	a2,0(t1)
800006c4:	ee0618e3          	bnez	a2,800005b4 <vsnprintf+0x5c>
800006c8:	00078413          	mv	s0,a5
800006cc:	00040023          	sb	zero,0(s0)
800006d0:	04012083          	lw	ra,64(sp)
800006d4:	03c12403          	lw	s0,60(sp)
800006d8:	03812483          	lw	s1,56(sp)
800006dc:	00028513          	mv	a0,t0
800006e0:	04410113          	addi	sp,sp,68
800006e4:	00008067          	ret
800006e8:	00140793          	addi	a5,s0,1
800006ec:	eb9ff06f          	j	800005a4 <vsnprintf+0x4c>
800006f0:	0004a703          	lw	a4,0(s1)
800006f4:	00712623          	sw	t2,12(sp)
800006f8:	00512423          	sw	t0,8(sp)
800006fc:	00070513          	mv	a0,a4
80000700:	00612a23          	sw	t1,20(sp)
80000704:	00e12823          	sw	a4,16(sp)
80000708:	200000ef          	jal	ra,80000908 <strlen>
8000070c:	00812283          	lw	t0,8(sp)
80000710:	00c12383          	lw	t2,12(sp)
80000714:	00448493          	addi	s1,s1,4
80000718:	00550533          	add	a0,a0,t0
8000071c:	fa7578e3          	bgeu	a0,t2,800006cc <vsnprintf+0x174>
80000720:	01012703          	lw	a4,16(sp)
80000724:	01412303          	lw	t1,20(sp)
80000728:	00074683          	lbu	a3,0(a4)
8000072c:	12068463          	beqz	a3,80000854 <vsnprintf+0x2fc>
80000730:	00040793          	mv	a5,s0
80000734:	00d78023          	sb	a3,0(a5)
80000738:	00174683          	lbu	a3,1(a4)
8000073c:	00170713          	addi	a4,a4,1
80000740:	00178793          	addi	a5,a5,1
80000744:	fe0698e3          	bnez	a3,80000734 <vsnprintf+0x1dc>
80000748:	00050293          	mv	t0,a0
8000074c:	f75ff06f          	j	800006c0 <vsnprintf+0x168>
80000750:	0004a503          	lw	a0,0(s1)
80000754:	01810713          	addi	a4,sp,24
80000758:	00e12223          	sw	a4,4(sp)
8000075c:	00b12023          	sw	a1,0(sp)
80000760:	00a00613          	li	a2,10
80000764:	00100713          	li	a4,1
80000768:	00000693          	li	a3,0
8000076c:	41f55593          	srai	a1,a0,0x1f
80000770:	00712623          	sw	t2,12(sp)
80000774:	00512423          	sw	t0,8(sp)
80000778:	00612823          	sw	t1,16(sp)
8000077c:	be1ff0ef          	jal	ra,8000035c <klib_itoa.part.0>
80000780:	00812283          	lw	t0,8(sp)
80000784:	00c12383          	lw	t2,12(sp)
80000788:	00448493          	addi	s1,s1,4
8000078c:	00550633          	add	a2,a0,t0
80000790:	f2767ee3          	bgeu	a2,t2,800006cc <vsnprintf+0x174>
80000794:	01012303          	lw	t1,16(sp)
80000798:	0aa05863          	blez	a0,80000848 <vsnprintf+0x2f0>
8000079c:	01810713          	addi	a4,sp,24
800007a0:	00a407b3          	add	a5,s0,a0
800007a4:	00074683          	lbu	a3,0(a4)
800007a8:	00140413          	addi	s0,s0,1
800007ac:	00170713          	addi	a4,a4,1
800007b0:	fed40fa3          	sb	a3,-1(s0)
800007b4:	fe8798e3          	bne	a5,s0,800007a4 <vsnprintf+0x24c>
800007b8:	f05ff06f          	j	800006bc <vsnprintf+0x164>
800007bc:	0004c603          	lbu	a2,0(s1)
800007c0:	00140793          	addi	a5,s0,1
800007c4:	00128293          	addi	t0,t0,1
800007c8:	00448493          	addi	s1,s1,4
800007cc:	dd9ff06f          	j	800005a4 <vsnprintf+0x4c>
800007d0:	0004a503          	lw	a0,0(s1)
800007d4:	01810713          	addi	a4,sp,24
800007d8:	00e12223          	sw	a4,4(sp)
800007dc:	00b12023          	sw	a1,0(sp)
800007e0:	00a00613          	li	a2,10
800007e4:	00000713          	li	a4,0
800007e8:	00000693          	li	a3,0
800007ec:	00000593          	li	a1,0
800007f0:	00712623          	sw	t2,12(sp)
800007f4:	00512423          	sw	t0,8(sp)
800007f8:	00612823          	sw	t1,16(sp)
800007fc:	b61ff0ef          	jal	ra,8000035c <klib_itoa.part.0>
80000800:	00812283          	lw	t0,8(sp)
80000804:	00c12383          	lw	t2,12(sp)
80000808:	00448493          	addi	s1,s1,4
8000080c:	00550633          	add	a2,a0,t0
80000810:	ea767ee3          	bgeu	a2,t2,800006cc <vsnprintf+0x174>
80000814:	01012303          	lw	t1,16(sp)
80000818:	02a05863          	blez	a0,80000848 <vsnprintf+0x2f0>
8000081c:	01810713          	addi	a4,sp,24
80000820:	00a407b3          	add	a5,s0,a0
80000824:	00074683          	lbu	a3,0(a4)
80000828:	00140413          	addi	s0,s0,1
8000082c:	00170713          	addi	a4,a4,1
80000830:	fed40fa3          	sb	a3,-1(s0)
80000834:	fe8798e3          	bne	a5,s0,80000824 <vsnprintf+0x2cc>
80000838:	e85ff06f          	j	800006bc <vsnprintf+0x164>
8000083c:	00000293          	li	t0,0
80000840:	00028513          	mv	a0,t0
80000844:	00008067          	ret
80000848:	00060293          	mv	t0,a2
8000084c:	00040793          	mv	a5,s0
80000850:	e71ff06f          	j	800006c0 <vsnprintf+0x168>
80000854:	00050293          	mv	t0,a0
80000858:	00040793          	mv	a5,s0
8000085c:	e65ff06f          	j	800006c0 <vsnprintf+0x168>
80000860:	00100293          	li	t0,1
80000864:	e69ff06f          	j	800006cc <vsnprintf+0x174>

80000868 <printf>:
80000868:	dd810113          	addi	sp,sp,-552
8000086c:	21410313          	addi	t1,sp,532
80000870:	20b12a23          	sw	a1,532(sp)
80000874:	20c12c23          	sw	a2,536(sp)
80000878:	20d12e23          	sw	a3,540(sp)
8000087c:	00050613          	mv	a2,a0
80000880:	00030693          	mv	a3,t1
80000884:	20000593          	li	a1,512
80000888:	00810513          	addi	a0,sp,8
8000088c:	22f12223          	sw	a5,548(sp)
80000890:	20112823          	sw	ra,528(sp)
80000894:	20812623          	sw	s0,524(sp)
80000898:	20912423          	sw	s1,520(sp)
8000089c:	22e12023          	sw	a4,544(sp)
800008a0:	00612223          	sw	t1,4(sp)
800008a4:	cb5ff0ef          	jal	ra,80000558 <vsnprintf>
800008a8:	00a12023          	sw	a0,0(sp)
800008ac:	1ff00793          	li	a5,511
800008b0:	02a7cc63          	blt	a5,a0,800008e8 <printf+0x80>
800008b4:	00810493          	addi	s1,sp,8
800008b8:	00a48433          	add	s0,s1,a0
800008bc:	00a05a63          	blez	a0,800008d0 <printf+0x68>
800008c0:	0004c503          	lbu	a0,0(s1)
800008c4:	00148493          	addi	s1,s1,1
800008c8:	8adff0ef          	jal	ra,80000174 <putch>
800008cc:	fe849ae3          	bne	s1,s0,800008c0 <printf+0x58>
800008d0:	21012083          	lw	ra,528(sp)
800008d4:	20c12403          	lw	s0,524(sp)
800008d8:	00012503          	lw	a0,0(sp)
800008dc:	20812483          	lw	s1,520(sp)
800008e0:	22810113          	addi	sp,sp,552
800008e4:	00008067          	ret
800008e8:	08200613          	li	a2,130
800008ec:	00001597          	auipc	a1,0x1
800008f0:	88058593          	addi	a1,a1,-1920 # 8000116c <_etext+0x170>
800008f4:	00000517          	auipc	a0,0x0
800008f8:	7d850513          	addi	a0,a0,2008 # 800010cc <_etext+0xd0>
800008fc:	f6dff0ef          	jal	ra,80000868 <printf>
80000900:	00100513          	li	a0,1
80000904:	87dff0ef          	jal	ra,80000180 <halt>

80000908 <strlen>:
80000908:	00054783          	lbu	a5,0(a0)
8000090c:	00050713          	mv	a4,a0
80000910:	00000513          	li	a0,0
80000914:	00078c63          	beqz	a5,8000092c <strlen+0x24>
80000918:	00150513          	addi	a0,a0,1
8000091c:	00a707b3          	add	a5,a4,a0
80000920:	0007c783          	lbu	a5,0(a5)
80000924:	fe079ae3          	bnez	a5,80000918 <strlen+0x10>
80000928:	00008067          	ret
8000092c:	00008067          	ret

80000930 <__udivmoddi4>:
80000930:	fe010113          	addi	sp,sp,-32
80000934:	00912a23          	sw	s1,20(sp)
80000938:	00112e23          	sw	ra,28(sp)
8000093c:	00812c23          	sw	s0,24(sp)
80000940:	00e12223          	sw	a4,4(sp)
80000944:	00050313          	mv	t1,a0
80000948:	00060493          	mv	s1,a2
8000094c:	04059663          	bnez	a1,80000998 <__udivmoddi4+0x68>
80000950:	20069463          	bnez	a3,80000b58 <__udivmoddi4+0x228>
80000954:	00070413          	mv	s0,a4
80000958:	00070e63          	beqz	a4,80000974 <__udivmoddi4+0x44>
8000095c:	00048593          	mv	a1,s1
80000960:	00a12023          	sw	a0,0(sp)
80000964:	634000ef          	jal	ra,80000f98 <__umodsi3>
80000968:	00012303          	lw	t1,0(sp)
8000096c:	00a42023          	sw	a0,0(s0)
80000970:	00042223          	sw	zero,4(s0)
80000974:	00048593          	mv	a1,s1
80000978:	00030513          	mv	a0,t1
8000097c:	5d4000ef          	jal	ra,80000f50 <__hidden___udivsi3>
80000980:	00000593          	li	a1,0
80000984:	01c12083          	lw	ra,28(sp)
80000988:	01812403          	lw	s0,24(sp)
8000098c:	01412483          	lw	s1,20(sp)
80000990:	02010113          	addi	sp,sp,32
80000994:	00008067          	ret
80000998:	00058793          	mv	a5,a1
8000099c:	08061263          	bnez	a2,80000a20 <__udivmoddi4+0xf0>
800009a0:	24068263          	beqz	a3,80000be4 <__udivmoddi4+0x2b4>
800009a4:	2c050a63          	beqz	a0,80000c78 <__udivmoddi4+0x348>
800009a8:	fff68613          	addi	a2,a3,-1
800009ac:	00d675b3          	and	a1,a2,a3
800009b0:	32058463          	beqz	a1,80000cd8 <__udivmoddi4+0x3a8>
800009b4:	00a12623          	sw	a0,12(sp)
800009b8:	00068513          	mv	a0,a3
800009bc:	00f12823          	sw	a5,16(sp)
800009c0:	00f12023          	sw	a5,0(sp)
800009c4:	00d12423          	sw	a3,8(sp)
800009c8:	474000ef          	jal	ra,80000e3c <__clzsi2>
800009cc:	00012703          	lw	a4,0(sp)
800009d0:	00050413          	mv	s0,a0
800009d4:	00070513          	mv	a0,a4
800009d8:	464000ef          	jal	ra,80000e3c <__clzsi2>
800009dc:	40a40533          	sub	a0,s0,a0
800009e0:	01e00613          	li	a2,30
800009e4:	00012703          	lw	a4,0(sp)
800009e8:	00812683          	lw	a3,8(sp)
800009ec:	00c12303          	lw	t1,12(sp)
800009f0:	01012783          	lw	a5,16(sp)
800009f4:	1ea66a63          	bltu	a2,a0,80000be8 <__udivmoddi4+0x2b8>
800009f8:	00150393          	addi	t2,a0,1
800009fc:	02000613          	li	a2,32
80000a00:	40760633          	sub	a2,a2,t2
80000a04:	00c712b3          	sll	t0,a4,a2
80000a08:	007355b3          	srl	a1,t1,t2
80000a0c:	007757b3          	srl	a5,a4,t2
80000a10:	00c31533          	sll	a0,t1,a2
80000a14:	00b2e733          	or	a4,t0,a1
80000a18:	00000413          	li	s0,0
80000a1c:	0780006f          	j	80000a94 <__udivmoddi4+0x164>
80000a20:	16068263          	beqz	a3,80000b84 <__udivmoddi4+0x254>
80000a24:	00a12423          	sw	a0,8(sp)
80000a28:	00068513          	mv	a0,a3
80000a2c:	00b12623          	sw	a1,12(sp)
80000a30:	00b12023          	sw	a1,0(sp)
80000a34:	00d12823          	sw	a3,16(sp)
80000a38:	404000ef          	jal	ra,80000e3c <__clzsi2>
80000a3c:	00012703          	lw	a4,0(sp)
80000a40:	00050413          	mv	s0,a0
80000a44:	00070513          	mv	a0,a4
80000a48:	3f4000ef          	jal	ra,80000e3c <__clzsi2>
80000a4c:	40a40533          	sub	a0,s0,a0
80000a50:	01f00613          	li	a2,31
80000a54:	00812303          	lw	t1,8(sp)
80000a58:	00c12783          	lw	a5,12(sp)
80000a5c:	18a66663          	bltu	a2,a0,80000be8 <__udivmoddi4+0x2b8>
80000a60:	00150393          	addi	t2,a0,1
80000a64:	02000793          	li	a5,32
80000a68:	00012703          	lw	a4,0(sp)
80000a6c:	01012683          	lw	a3,16(sp)
80000a70:	00030513          	mv	a0,t1
80000a74:	28f38a63          	beq	t2,a5,80000d08 <__udivmoddi4+0x3d8>
80000a78:	40778633          	sub	a2,a5,t2
80000a7c:	007355b3          	srl	a1,t1,t2
80000a80:	00c71333          	sll	t1,a4,a2
80000a84:	007757b3          	srl	a5,a4,t2
80000a88:	00c51533          	sll	a0,a0,a2
80000a8c:	00b36733          	or	a4,t1,a1
80000a90:	00000413          	li	s0,0
80000a94:	00068613          	mv	a2,a3
80000a98:	00012023          	sw	zero,0(sp)
80000a9c:	00078693          	mv	a3,a5
80000aa0:	00060793          	mv	a5,a2
80000aa4:	01f55593          	srli	a1,a0,0x1f
80000aa8:	00171613          	slli	a2,a4,0x1
80000aac:	00b66633          	or	a2,a2,a1
80000ab0:	01f75713          	srli	a4,a4,0x1f
80000ab4:	00169693          	slli	a3,a3,0x1
80000ab8:	00e6e6b3          	or	a3,a3,a4
80000abc:	40c48733          	sub	a4,s1,a2
80000ac0:	00e4b333          	sltu	t1,s1,a4
80000ac4:	40d785b3          	sub	a1,a5,a3
80000ac8:	406585b3          	sub	a1,a1,t1
80000acc:	00173713          	seqz	a4,a4
80000ad0:	40e585b3          	sub	a1,a1,a4
80000ad4:	41f5d313          	srai	t1,a1,0x1f
80000ad8:	00937733          	and	a4,t1,s1
80000adc:	00f37333          	and	t1,t1,a5
80000ae0:	406686b3          	sub	a3,a3,t1
80000ae4:	00012303          	lw	t1,0(sp)
80000ae8:	40e60733          	sub	a4,a2,a4
80000aec:	01f5d593          	srli	a1,a1,0x1f
80000af0:	01f45293          	srli	t0,s0,0x1f
80000af4:	00151513          	slli	a0,a0,0x1
80000af8:	00141413          	slli	s0,s0,0x1
80000afc:	00e63633          	sltu	a2,a2,a4
80000b00:	fff38393          	addi	t2,t2,-1
80000b04:	00b12023          	sw	a1,0(sp)
80000b08:	00646433          	or	s0,s0,t1
80000b0c:	00556533          	or	a0,a0,t0
80000b10:	40c686b3          	sub	a3,a3,a2
80000b14:	f80398e3          	bnez	t2,80000aa4 <__udivmoddi4+0x174>
80000b18:	01f45593          	srli	a1,s0,0x1f
80000b1c:	00068793          	mv	a5,a3
80000b20:	00151693          	slli	a3,a0,0x1
80000b24:	00012603          	lw	a2,0(sp)
80000b28:	00d5e5b3          	or	a1,a1,a3
80000b2c:	00412683          	lw	a3,4(sp)
80000b30:	00141413          	slli	s0,s0,0x1
80000b34:	00c46533          	or	a0,s0,a2
80000b38:	e40686e3          	beqz	a3,80000984 <__udivmoddi4+0x54>
80000b3c:	01c12083          	lw	ra,28(sp)
80000b40:	01812403          	lw	s0,24(sp)
80000b44:	00e6a023          	sw	a4,0(a3)
80000b48:	00f6a223          	sw	a5,4(a3)
80000b4c:	01412483          	lw	s1,20(sp)
80000b50:	02010113          	addi	sp,sp,32
80000b54:	00008067          	ret
80000b58:	00412783          	lw	a5,4(sp)
80000b5c:	08078a63          	beqz	a5,80000bf0 <__udivmoddi4+0x2c0>
80000b60:	01c12083          	lw	ra,28(sp)
80000b64:	01812403          	lw	s0,24(sp)
80000b68:	00a7a023          	sw	a0,0(a5)
80000b6c:	0007a223          	sw	zero,4(a5)
80000b70:	01412483          	lw	s1,20(sp)
80000b74:	00000513          	li	a0,0
80000b78:	00000593          	li	a1,0
80000b7c:	02010113          	addi	sp,sp,32
80000b80:	00008067          	ret
80000b84:	fff60613          	addi	a2,a2,-1
80000b88:	009675b3          	and	a1,a2,s1
80000b8c:	06059863          	bnez	a1,80000bfc <__udivmoddi4+0x2cc>
80000b90:	00412703          	lw	a4,4(sp)
80000b94:	00070863          	beqz	a4,80000ba4 <__udivmoddi4+0x274>
80000b98:	00a67633          	and	a2,a2,a0
80000b9c:	00c72023          	sw	a2,0(a4)
80000ba0:	00072223          	sw	zero,4(a4)
80000ba4:	00100713          	li	a4,1
80000ba8:	12e48263          	beq	s1,a4,80000ccc <__udivmoddi4+0x39c>
80000bac:	00048513          	mv	a0,s1
80000bb0:	00f12223          	sw	a5,4(sp)
80000bb4:	00612023          	sw	t1,0(sp)
80000bb8:	31c000ef          	jal	ra,80000ed4 <__ctzsi2>
80000bbc:	00412783          	lw	a5,4(sp)
80000bc0:	00012303          	lw	t1,0(sp)
80000bc4:	02000413          	li	s0,32
80000bc8:	40a40433          	sub	s0,s0,a0
80000bcc:	00050713          	mv	a4,a0
80000bd0:	00879433          	sll	s0,a5,s0
80000bd4:	00a35533          	srl	a0,t1,a0
80000bd8:	00a46533          	or	a0,s0,a0
80000bdc:	00e7d5b3          	srl	a1,a5,a4
80000be0:	da5ff06f          	j	80000984 <__udivmoddi4+0x54>
80000be4:	00100073          	ebreak
80000be8:	00412703          	lw	a4,4(sp)
80000bec:	0c071663          	bnez	a4,80000cb8 <__udivmoddi4+0x388>
80000bf0:	00000513          	li	a0,0
80000bf4:	00000593          	li	a1,0
80000bf8:	d8dff06f          	j	80000984 <__udivmoddi4+0x54>
80000bfc:	00a12623          	sw	a0,12(sp)
80000c00:	00048513          	mv	a0,s1
80000c04:	00068413          	mv	s0,a3
80000c08:	00d12823          	sw	a3,16(sp)
80000c0c:	00f12023          	sw	a5,0(sp)
80000c10:	22c000ef          	jal	ra,80000e3c <__clzsi2>
80000c14:	00012703          	lw	a4,0(sp)
80000c18:	00050613          	mv	a2,a0
80000c1c:	00c12023          	sw	a2,0(sp)
80000c20:	00070513          	mv	a0,a4
80000c24:	00e12423          	sw	a4,8(sp)
80000c28:	214000ef          	jal	ra,80000e3c <__clzsi2>
80000c2c:	00012603          	lw	a2,0(sp)
80000c30:	00c12303          	lw	t1,12(sp)
80000c34:	02000593          	li	a1,32
80000c38:	40a60633          	sub	a2,a2,a0
80000c3c:	02160393          	addi	t2,a2,33
80000c40:	00812703          	lw	a4,8(sp)
80000c44:	01012683          	lw	a3,16(sp)
80000c48:	00030513          	mv	a0,t1
80000c4c:	00000793          	li	a5,0
80000c50:	e4b382e3          	beq	t2,a1,80000a94 <__udivmoddi4+0x164>
80000c54:	01f00313          	li	t1,31
80000c58:	0a736e63          	bltu	t1,t2,80000d14 <__udivmoddi4+0x3e4>
80000c5c:	407585b3          	sub	a1,a1,t2
80000c60:	00755633          	srl	a2,a0,t2
80000c64:	00b71333          	sll	t1,a4,a1
80000c68:	007757b3          	srl	a5,a4,t2
80000c6c:	00b51533          	sll	a0,a0,a1
80000c70:	00c36733          	or	a4,t1,a2
80000c74:	e21ff06f          	j	80000a94 <__udivmoddi4+0x164>
80000c78:	00412403          	lw	s0,4(sp)
80000c7c:	02040463          	beqz	s0,80000ca4 <__udivmoddi4+0x374>
80000c80:	00068593          	mv	a1,a3
80000c84:	00078513          	mv	a0,a5
80000c88:	00d12223          	sw	a3,4(sp)
80000c8c:	00f12023          	sw	a5,0(sp)
80000c90:	308000ef          	jal	ra,80000f98 <__umodsi3>
80000c94:	00412683          	lw	a3,4(sp)
80000c98:	00012783          	lw	a5,0(sp)
80000c9c:	00042023          	sw	zero,0(s0)
80000ca0:	00a42223          	sw	a0,4(s0)
80000ca4:	00068593          	mv	a1,a3
80000ca8:	00078513          	mv	a0,a5
80000cac:	2a4000ef          	jal	ra,80000f50 <__hidden___udivsi3>
80000cb0:	00000593          	li	a1,0
80000cb4:	cd1ff06f          	j	80000984 <__udivmoddi4+0x54>
80000cb8:	00672023          	sw	t1,0(a4)
80000cbc:	00f72223          	sw	a5,4(a4)
80000cc0:	00000513          	li	a0,0
80000cc4:	00000593          	li	a1,0
80000cc8:	cbdff06f          	j	80000984 <__udivmoddi4+0x54>
80000ccc:	00030513          	mv	a0,t1
80000cd0:	00078593          	mv	a1,a5
80000cd4:	cb1ff06f          	j	80000984 <__udivmoddi4+0x54>
80000cd8:	00412703          	lw	a4,4(sp)
80000cdc:	00070863          	beqz	a4,80000cec <__udivmoddi4+0x3bc>
80000ce0:	00f67633          	and	a2,a2,a5
80000ce4:	00a72023          	sw	a0,0(a4)
80000ce8:	00c72223          	sw	a2,4(a4)
80000cec:	00068513          	mv	a0,a3
80000cf0:	00f12023          	sw	a5,0(sp)
80000cf4:	1e0000ef          	jal	ra,80000ed4 <__ctzsi2>
80000cf8:	00012783          	lw	a5,0(sp)
80000cfc:	00000593          	li	a1,0
80000d00:	00a7d533          	srl	a0,a5,a0
80000d04:	c81ff06f          	j	80000984 <__udivmoddi4+0x54>
80000d08:	00000793          	li	a5,0
80000d0c:	00000413          	li	s0,0
80000d10:	d85ff06f          	j	80000a94 <__udivmoddi4+0x164>
80000d14:	04000593          	li	a1,64
80000d18:	407585b3          	sub	a1,a1,t2
80000d1c:	00160613          	addi	a2,a2,1
80000d20:	00b51433          	sll	s0,a0,a1
80000d24:	00b715b3          	sll	a1,a4,a1
80000d28:	00c55533          	srl	a0,a0,a2
80000d2c:	00a5e533          	or	a0,a1,a0
80000d30:	00c75733          	srl	a4,a4,a2
80000d34:	d61ff06f          	j	80000a94 <__udivmoddi4+0x164>

80000d38 <__divdi3>:
80000d38:	41f5d313          	srai	t1,a1,0x1f
80000d3c:	41f6d793          	srai	a5,a3,0x1f
80000d40:	006542b3          	xor	t0,a0,t1
80000d44:	00f643b3          	xor	t2,a2,a5
80000d48:	40f38633          	sub	a2,t2,a5
80000d4c:	40628533          	sub	a0,t0,t1
80000d50:	0065c5b3          	xor	a1,a1,t1
80000d54:	00f6c6b3          	xor	a3,a3,a5
80000d58:	00c3b3b3          	sltu	t2,t2,a2
80000d5c:	40f686b3          	sub	a3,a3,a5
80000d60:	00a2b2b3          	sltu	t0,t0,a0
80000d64:	406585b3          	sub	a1,a1,t1
80000d68:	ff410113          	addi	sp,sp,-12
80000d6c:	00000713          	li	a4,0
80000d70:	407686b3          	sub	a3,a3,t2
80000d74:	405585b3          	sub	a1,a1,t0
80000d78:	00812223          	sw	s0,4(sp)
80000d7c:	00112423          	sw	ra,8(sp)
80000d80:	00f34433          	xor	s0,t1,a5
80000d84:	badff0ef          	jal	ra,80000930 <__udivmoddi4>
80000d88:	00854733          	xor	a4,a0,s0
80000d8c:	0085c5b3          	xor	a1,a1,s0
80000d90:	40870533          	sub	a0,a4,s0
80000d94:	00812083          	lw	ra,8(sp)
80000d98:	408585b3          	sub	a1,a1,s0
80000d9c:	00412403          	lw	s0,4(sp)
80000da0:	00a73733          	sltu	a4,a4,a0
80000da4:	40e585b3          	sub	a1,a1,a4
80000da8:	00c10113          	addi	sp,sp,12
80000dac:	00008067          	ret

80000db0 <__moddi3>:
80000db0:	fe810113          	addi	sp,sp,-24
80000db4:	00812823          	sw	s0,16(sp)
80000db8:	41f6d313          	srai	t1,a3,0x1f
80000dbc:	41f5d413          	srai	s0,a1,0x1f
80000dc0:	00854733          	xor	a4,a0,s0
80000dc4:	006647b3          	xor	a5,a2,t1
80000dc8:	00912623          	sw	s1,12(sp)
80000dcc:	40870533          	sub	a0,a4,s0
80000dd0:	40678633          	sub	a2,a5,t1
80000dd4:	0066c6b3          	xor	a3,a3,t1
80000dd8:	0085c5b3          	xor	a1,a1,s0
80000ddc:	00710493          	addi	s1,sp,7
80000de0:	ff84f493          	andi	s1,s1,-8
80000de4:	00c7b7b3          	sltu	a5,a5,a2
80000de8:	406686b3          	sub	a3,a3,t1
80000dec:	408585b3          	sub	a1,a1,s0
80000df0:	00a73333          	sltu	t1,a4,a0
80000df4:	40f686b3          	sub	a3,a3,a5
80000df8:	00048713          	mv	a4,s1
80000dfc:	406585b3          	sub	a1,a1,t1
80000e00:	00112a23          	sw	ra,20(sp)
80000e04:	b2dff0ef          	jal	ra,80000930 <__udivmoddi4>
80000e08:	0004a783          	lw	a5,0(s1)
80000e0c:	0044a583          	lw	a1,4(s1)
80000e10:	01412083          	lw	ra,20(sp)
80000e14:	0087c7b3          	xor	a5,a5,s0
80000e18:	0085c5b3          	xor	a1,a1,s0
80000e1c:	40878533          	sub	a0,a5,s0
80000e20:	408585b3          	sub	a1,a1,s0
80000e24:	01012403          	lw	s0,16(sp)
80000e28:	00a7b7b3          	sltu	a5,a5,a0
80000e2c:	00c12483          	lw	s1,12(sp)
80000e30:	40f585b3          	sub	a1,a1,a5
80000e34:	01810113          	addi	sp,sp,24
80000e38:	00008067          	ret

80000e3c <__clzsi2>:
80000e3c:	ffff0637          	lui	a2,0xffff0
80000e40:	00c57633          	and	a2,a0,a2
80000e44:	00163613          	seqz	a2,a2
80000e48:	00461613          	slli	a2,a2,0x4
80000e4c:	01000793          	li	a5,16
80000e50:	40c787b3          	sub	a5,a5,a2
80000e54:	00010737          	lui	a4,0x10
80000e58:	00f557b3          	srl	a5,a0,a5
80000e5c:	f0070713          	addi	a4,a4,-256 # ff00 <_entry_offset+0xff00>
80000e60:	00e7f733          	and	a4,a5,a4
80000e64:	00173713          	seqz	a4,a4
80000e68:	00371713          	slli	a4,a4,0x3
80000e6c:	00800693          	li	a3,8
80000e70:	40e686b3          	sub	a3,a3,a4
80000e74:	00d7d7b3          	srl	a5,a5,a3
80000e78:	0f07f593          	andi	a1,a5,240
80000e7c:	0015b593          	seqz	a1,a1
80000e80:	00259593          	slli	a1,a1,0x2
80000e84:	00400693          	li	a3,4
80000e88:	40b686b3          	sub	a3,a3,a1
80000e8c:	00d7d7b3          	srl	a5,a5,a3
80000e90:	00c7f513          	andi	a0,a5,12
80000e94:	00153513          	seqz	a0,a0
80000e98:	00151513          	slli	a0,a0,0x1
80000e9c:	00200313          	li	t1,2
80000ea0:	40a306b3          	sub	a3,t1,a0
80000ea4:	00d7d7b3          	srl	a5,a5,a3
80000ea8:	0017d693          	srli	a3,a5,0x1
80000eac:	0016c693          	xori	a3,a3,1
80000eb0:	00c70733          	add	a4,a4,a2
80000eb4:	0016f693          	andi	a3,a3,1
80000eb8:	00e585b3          	add	a1,a1,a4
80000ebc:	40f30333          	sub	t1,t1,a5
80000ec0:	40d006b3          	neg	a3,a3
80000ec4:	0066f6b3          	and	a3,a3,t1
80000ec8:	00b50533          	add	a0,a0,a1
80000ecc:	00a68533          	add	a0,a3,a0
80000ed0:	00008067          	ret

80000ed4 <__ctzsi2>:
80000ed4:	01051593          	slli	a1,a0,0x10
80000ed8:	0105d593          	srli	a1,a1,0x10
80000edc:	0015b593          	seqz	a1,a1
80000ee0:	00459593          	slli	a1,a1,0x4
80000ee4:	00b557b3          	srl	a5,a0,a1
80000ee8:	0ff7f613          	zext.b	a2,a5
80000eec:	00163613          	seqz	a2,a2
80000ef0:	00361613          	slli	a2,a2,0x3
80000ef4:	00c7d7b3          	srl	a5,a5,a2
80000ef8:	00f7f693          	andi	a3,a5,15
80000efc:	0016b693          	seqz	a3,a3
80000f00:	00269693          	slli	a3,a3,0x2
80000f04:	00d7d7b3          	srl	a5,a5,a3
80000f08:	0037f713          	andi	a4,a5,3
80000f0c:	00173713          	seqz	a4,a4
80000f10:	00171713          	slli	a4,a4,0x1
80000f14:	00e7d7b3          	srl	a5,a5,a4
80000f18:	0017d513          	srli	a0,a5,0x1
80000f1c:	00b60633          	add	a2,a2,a1
80000f20:	0017f793          	andi	a5,a5,1
80000f24:	00157593          	andi	a1,a0,1
80000f28:	00200513          	li	a0,2
80000f2c:	40b50533          	sub	a0,a0,a1
80000f30:	00c686b3          	add	a3,a3,a2
80000f34:	fff78793          	addi	a5,a5,-1
80000f38:	00f577b3          	and	a5,a0,a5
80000f3c:	00d70533          	add	a0,a4,a3
80000f40:	00a78533          	add	a0,a5,a0
80000f44:	00008067          	ret

80000f48 <__divsi3>:
80000f48:	06054063          	bltz	a0,80000fa8 <__umodsi3+0x10>
80000f4c:	0605c663          	bltz	a1,80000fb8 <__umodsi3+0x20>

80000f50 <__hidden___udivsi3>:
80000f50:	00058613          	mv	a2,a1
80000f54:	00050593          	mv	a1,a0
80000f58:	fff00513          	li	a0,-1
80000f5c:	02060c63          	beqz	a2,80000f94 <__hidden___udivsi3+0x44>
80000f60:	00100693          	li	a3,1
80000f64:	00b67a63          	bgeu	a2,a1,80000f78 <__hidden___udivsi3+0x28>
80000f68:	00c05863          	blez	a2,80000f78 <__hidden___udivsi3+0x28>
80000f6c:	00161613          	slli	a2,a2,0x1
80000f70:	00169693          	slli	a3,a3,0x1
80000f74:	feb66ae3          	bltu	a2,a1,80000f68 <__hidden___udivsi3+0x18>
80000f78:	00000513          	li	a0,0
80000f7c:	00c5e663          	bltu	a1,a2,80000f88 <__hidden___udivsi3+0x38>
80000f80:	40c585b3          	sub	a1,a1,a2
80000f84:	00d56533          	or	a0,a0,a3
80000f88:	0016d693          	srli	a3,a3,0x1
80000f8c:	00165613          	srli	a2,a2,0x1
80000f90:	fe0696e3          	bnez	a3,80000f7c <__hidden___udivsi3+0x2c>
80000f94:	00008067          	ret

80000f98 <__umodsi3>:
80000f98:	00008293          	mv	t0,ra
80000f9c:	fb5ff0ef          	jal	ra,80000f50 <__hidden___udivsi3>
80000fa0:	00058513          	mv	a0,a1
80000fa4:	00028067          	jr	t0
80000fa8:	40a00533          	neg	a0,a0
80000fac:	00b04863          	bgtz	a1,80000fbc <__umodsi3+0x24>
80000fb0:	40b005b3          	neg	a1,a1
80000fb4:	f9dff06f          	j	80000f50 <__hidden___udivsi3>
80000fb8:	40b005b3          	neg	a1,a1
80000fbc:	00008293          	mv	t0,ra
80000fc0:	f91ff0ef          	jal	ra,80000f50 <__hidden___udivsi3>
80000fc4:	40a00533          	neg	a0,a0
80000fc8:	00028067          	jr	t0

80000fcc <__modsi3>:
80000fcc:	00008293          	mv	t0,ra
80000fd0:	0005ca63          	bltz	a1,80000fe4 <__modsi3+0x18>
80000fd4:	00054c63          	bltz	a0,80000fec <__modsi3+0x20>
80000fd8:	f79ff0ef          	jal	ra,80000f50 <__hidden___udivsi3>
80000fdc:	00058513          	mv	a0,a1
80000fe0:	00028067          	jr	t0
80000fe4:	40b005b3          	neg	a1,a1
80000fe8:	fe0558e3          	bgez	a0,80000fd8 <__modsi3+0xc>
80000fec:	40a00533          	neg	a0,a0
80000ff0:	f61ff0ef          	jal	ra,80000f50 <__hidden___udivsi3>
80000ff4:	40b00533          	neg	a0,a1
80000ff8:	00028067          	jr	t0
