
/home/tututu/hry/ysyx/ysyx-workbench/am-kernels/kernels/hello/build/hello-riscv32e-ysyxsoc.elf:     file format elf32-littleriscv


Disassembly of section .entry:

30000000 <_start>:
30000000:	00000517          	auipc	a0,0x0
30000004:	03850513          	addi	a0,a0,56 # 30000038 <_bssbl_lma>
30000008:	df000597          	auipc	a1,0xdf000
3000000c:	ff858593          	addi	a1,a1,-8 # f000000 <SSBL>
30000010:	df000617          	auipc	a2,0xdf000
30000014:	0a060613          	addi	a2,a2,160 # f0000b0 <_essbl>

30000018 <LD_SSBL>:
30000018:	00c5dc63          	bge	a1,a2,30000030 <END>
3000001c:	00052403          	lw	s0,0(a0)
30000020:	0085a023          	sw	s0,0(a1)
30000024:	00450513          	addi	a0,a0,4
30000028:	00458593          	addi	a1,a1,4
3000002c:	fedff06f          	j	30000018 <LD_SSBL>

30000030 <END>:
30000030:	df000097          	auipc	ra,0xdf000
30000034:	fd0080e7          	jalr	-48(ra) # f000000 <SSBL>

Disassembly of section .second:

0f000000 <SSBL>:
 f000000:	21001297          	auipc	t0,0x21001
 f000004:	82828293          	addi	t0,t0,-2008 # 30000828 <_bdata_lma>
 f000008:	91000317          	auipc	t1,0x91000
 f00000c:	73830313          	addi	t1,t1,1848 # a0000740 <_stack_pointer+0xfc000740>
 f000010:	91001397          	auipc	t2,0x91001
 f000014:	93038393          	addi	t2,t2,-1744 # a0000940 <_stack_pointer+0xfc000940>
 f000018:	00038493          	mv	s1,t2
 f00001c:	ffc3f393          	andi	t2,t2,-4

0f000020 <LD_DATA>:
 f000020:	00735c63          	bge	t1,t2,f000038 <LD_DATA_UNALIGN>
 f000024:	0002a403          	lw	s0,0(t0)
 f000028:	00832023          	sw	s0,0(t1)
 f00002c:	00428293          	addi	t0,t0,4
 f000030:	00430313          	addi	t1,t1,4
 f000034:	fedff06f          	j	f000020 <LD_DATA>

0f000038 <LD_DATA_UNALIGN>:
 f000038:	00935c63          	bge	t1,s1,f000050 <TEXT>
 f00003c:	00028403          	lb	s0,0(t0)
 f000040:	00830023          	sb	s0,0(t1)
 f000044:	00128293          	addi	t0,t0,1
 f000048:	00130313          	addi	t1,t1,1
 f00004c:	fedff06f          	j	f000038 <LD_DATA_UNALIGN>

0f000050 <TEXT>:
 f000050:	21000297          	auipc	t0,0x21000
 f000054:	09828293          	addi	t0,t0,152 # 300000e8 <_btext_lma>
 f000058:	91000317          	auipc	t1,0x91000
 f00005c:	fa830313          	addi	t1,t1,-88 # a0000000 <_stack_pointer+0xfc000000>
 f000060:	91000397          	auipc	t2,0x91000
 f000064:	6dd38393          	addi	t2,t2,1757 # a000073d <_stack_pointer+0xfc00073d>
 f000068:	00038493          	mv	s1,t2
 f00006c:	ffc3f393          	andi	t2,t2,-4

0f000070 <LD_TEXT>:
 f000070:	00735c63          	bge	t1,t2,f000088 <LD_TEXT_UNALIGN>
 f000074:	0002a403          	lw	s0,0(t0)
 f000078:	00832023          	sw	s0,0(t1)
 f00007c:	00428293          	addi	t0,t0,4
 f000080:	00430313          	addi	t1,t1,4
 f000084:	fedff06f          	j	f000070 <LD_TEXT>

0f000088 <LD_TEXT_UNALIGN>:
 f000088:	00935c63          	bge	t1,s1,f0000a0 <GO>
 f00008c:	00028403          	lb	s0,0(t0)
 f000090:	00830023          	sb	s0,0(t1)
 f000094:	00128293          	addi	t0,t0,1
 f000098:	00130313          	addi	t1,t1,1
 f00009c:	fedff06f          	j	f000088 <LD_TEXT_UNALIGN>

0f0000a0 <GO>:
 f0000a0:	95000117          	auipc	sp,0x95000
 f0000a4:	f6010113          	addi	sp,sp,-160 # a4000000 <_stack_pointer+0x0>
 f0000a8:	91000097          	auipc	ra,0x91000
 f0000ac:	000080e7          	jalr	ra # a00000a8 <_stack_pointer+0xfc0000a8>

Disassembly of section .text:

a0000000 <main>:
a0000000:	ff010113          	addi	sp,sp,-16
a0000004:	00812423          	sw	s0,8(sp)
a0000008:	00a12023          	sw	a0,0(sp)
a000000c:	00112623          	sw	ra,12(sp)
a0000010:	00912223          	sw	s1,4(sp)
a0000014:	00000417          	auipc	s0,0x0
a0000018:	67440413          	addi	s0,s0,1652 # a0000688 <memset+0x20>
a000001c:	04800513          	li	a0,72
a0000020:	0140006f          	j	a0000034 <main+0x34>
a0000024:	054000ef          	jal	ra,a0000078 <putch>
a0000028:	00144503          	lbu	a0,1(s0)
a000002c:	00140413          	addi	s0,s0,1
a0000030:	02050a63          	beqz	a0,a0000064 <main+0x64>
a0000034:	02500793          	li	a5,37
a0000038:	fef516e3          	bne	a0,a5,a0000024 <main+0x24>
a000003c:	00012483          	lw	s1,0(sp)
a0000040:	0004c503          	lbu	a0,0(s1)
a0000044:	fe0502e3          	beqz	a0,a0000028 <main+0x28>
a0000048:	00148493          	addi	s1,s1,1
a000004c:	02c000ef          	jal	ra,a0000078 <putch>
a0000050:	0004c503          	lbu	a0,0(s1)
a0000054:	fe051ae3          	bnez	a0,a0000048 <main+0x48>
a0000058:	00144503          	lbu	a0,1(s0)
a000005c:	00140413          	addi	s0,s0,1
a0000060:	fc051ae3          	bnez	a0,a0000034 <main+0x34>
a0000064:	00c12083          	lw	ra,12(sp)
a0000068:	00812403          	lw	s0,8(sp)
a000006c:	00412483          	lw	s1,4(sp)
a0000070:	01010113          	addi	sp,sp,16
a0000074:	00008067          	ret

a0000078 <putch>:
a0000078:	ff010113          	addi	sp,sp,-16
a000007c:	00050793          	mv	a5,a0
a0000080:	00010593          	mv	a1,sp
a0000084:	00200513          	li	a0,2
a0000088:	00112623          	sw	ra,12(sp)
a000008c:	00f10023          	sb	a5,0(sp)
a0000090:	17c000ef          	jal	ra,a000020c <ioe_write>
a0000094:	00c12083          	lw	ra,12(sp)
a0000098:	01010113          	addi	sp,sp,16
a000009c:	00008067          	ret

a00000a0 <halt>:
a00000a0:	00100073          	ebreak
a00000a4:	0000006f          	j	a00000a4 <halt+0x4>

a00000a8 <_trm_init>:
a00000a8:	ff410113          	addi	sp,sp,-12
a00000ac:	00112423          	sw	ra,8(sp)
a00000b0:	100000ef          	jal	ra,a00001b0 <ioe_init>
a00000b4:	00001517          	auipc	a0,0x1
a00000b8:	88c50513          	addi	a0,a0,-1908 # a0000940 <keymap>
a00000bc:	00001617          	auipc	a2,0x1
a00000c0:	a8460613          	addi	a2,a2,-1404 # a0000b40 <_bss_end>
a00000c4:	40a60633          	sub	a2,a2,a0
a00000c8:	00000593          	li	a1,0
a00000cc:	59c000ef          	jal	ra,a0000668 <memset>
a00000d0:	f12027f3          	.4byte	0xf12027f3
a00000d4:	04078263          	beqz	a5,a0000118 <_trm_init+0x70>
a00000d8:	00000693          	li	a3,0
a00000dc:	00000613          	li	a2,0
a00000e0:	00a00593          	li	a1,10
a00000e4:	02b7e733          	rem	a4,a5,a1
a00000e8:	02b7c7b3          	div	a5,a5,a1
a00000ec:	00d71733          	sll	a4,a4,a3
a00000f0:	00e60633          	add	a2,a2,a4
a00000f4:	00468693          	addi	a3,a3,4
a00000f8:	fe0796e3          	bnez	a5,a00000e4 <_trm_init+0x3c>
a00000fc:	100027b7          	lui	a5,0x10002
a0000100:	00c7a423          	sw	a2,8(a5) # 10002008 <_essbl+0x1001f58>
a0000104:	00000517          	auipc	a0,0x0
a0000108:	63450513          	addi	a0,a0,1588 # a0000738 <mainargs>
a000010c:	ef5ff0ef          	jal	ra,a0000000 <main>
a0000110:	00100073          	ebreak
a0000114:	0000006f          	j	a0000114 <_trm_init+0x6c>
a0000118:	00000613          	li	a2,0
a000011c:	fe1ff06f          	j	a00000fc <_trm_init+0x54>

a0000120 <__am_timer_config>:
a0000120:	00100793          	li	a5,1
a0000124:	00f50023          	sb	a5,0(a0)
a0000128:	00f500a3          	sb	a5,1(a0)
a000012c:	00008067          	ret

a0000130 <__am_input_config>:
a0000130:	00100793          	li	a5,1
a0000134:	00f50023          	sb	a5,0(a0)
a0000138:	00008067          	ret

a000013c <fail>:
a000013c:	ff410113          	addi	sp,sp,-12
a0000140:	00812223          	sw	s0,4(sp)
a0000144:	00112423          	sw	ra,8(sp)
a0000148:	00000417          	auipc	s0,0x0
a000014c:	56c40413          	addi	s0,s0,1388 # a00006b4 <memset+0x4c>
a0000150:	04100513          	li	a0,65
a0000154:	00140413          	addi	s0,s0,1
a0000158:	f21ff0ef          	jal	ra,a0000078 <putch>
a000015c:	00044503          	lbu	a0,0(s0)
a0000160:	fe051ae3          	bnez	a0,a0000154 <fail+0x18>
a0000164:	00000417          	auipc	s0,0x0
a0000168:	55c40413          	addi	s0,s0,1372 # a00006c0 <memset+0x58>
a000016c:	06100513          	li	a0,97
a0000170:	00140413          	addi	s0,s0,1
a0000174:	f05ff0ef          	jal	ra,a0000078 <putch>
a0000178:	00044503          	lbu	a0,0(s0)
a000017c:	fe051ae3          	bnez	a0,a0000170 <fail+0x34>
a0000180:	00000417          	auipc	s0,0x0
a0000184:	55c40413          	addi	s0,s0,1372 # a00006dc <memset+0x74>
a0000188:	02000513          	li	a0,32
a000018c:	00140413          	addi	s0,s0,1
a0000190:	ee9ff0ef          	jal	ra,a0000078 <putch>
a0000194:	00044503          	lbu	a0,0(s0)
a0000198:	fe051ae3          	bnez	a0,a000018c <fail+0x50>
a000019c:	00100513          	li	a0,1
a00001a0:	f01ff0ef          	jal	ra,a00000a0 <halt>

a00001a4 <__am_uart_config>:
a00001a4:	00100793          	li	a5,1
a00001a8:	00f50023          	sb	a5,0(a0)
a00001ac:	00008067          	ret

a00001b0 <ioe_init>:
a00001b0:	ff410113          	addi	sp,sp,-12
a00001b4:	00112423          	sw	ra,8(sp)
a00001b8:	00000797          	auipc	a5,0x0
a00001bc:	58878793          	addi	a5,a5,1416 # a0000740 <lut>
a00001c0:	00000697          	auipc	a3,0x0
a00001c4:	78068693          	addi	a3,a3,1920 # a0000940 <keymap>
a00001c8:	00000617          	auipc	a2,0x0
a00001cc:	f7460613          	addi	a2,a2,-140 # a000013c <fail>
a00001d0:	00c0006f          	j	a00001dc <ioe_init+0x2c>
a00001d4:	00478793          	addi	a5,a5,4
a00001d8:	00d78c63          	beq	a5,a3,a00001f0 <ioe_init+0x40>
a00001dc:	0007a703          	lw	a4,0(a5)
a00001e0:	fe071ae3          	bnez	a4,a00001d4 <ioe_init+0x24>
a00001e4:	00c7a023          	sw	a2,0(a5)
a00001e8:	00478793          	addi	a5,a5,4
a00001ec:	fed798e3          	bne	a5,a3,a00001dc <ioe_init+0x2c>
a00001f0:	038000ef          	jal	ra,a0000228 <__am_timer_init>
a00001f4:	164000ef          	jal	ra,a0000358 <__am_uart_init>
a00001f8:	24c000ef          	jal	ra,a0000444 <__am_input_init>
a00001fc:	00812083          	lw	ra,8(sp)
a0000200:	00100513          	li	a0,1
a0000204:	00c10113          	addi	sp,sp,12
a0000208:	00008067          	ret

a000020c <ioe_write>:
a000020c:	00251513          	slli	a0,a0,0x2
a0000210:	00000797          	auipc	a5,0x0
a0000214:	53078793          	addi	a5,a5,1328 # a0000740 <lut>
a0000218:	00a787b3          	add	a5,a5,a0
a000021c:	0007a783          	lw	a5,0(a5)
a0000220:	00058513          	mv	a0,a1
a0000224:	00078067          	jr	a5

a0000228 <__am_timer_init>:
a0000228:	00008067          	ret

a000022c <__am_timer_uptime>:
a000022c:	020007b7          	lui	a5,0x2000
a0000230:	0047a703          	lw	a4,4(a5) # 2000004 <_entry_offset+0x2000004>
a0000234:	0007a783          	lw	a5,0(a5)
a0000238:	00e7e7b3          	or	a5,a5,a4
a000023c:	0017d713          	srli	a4,a5,0x1
a0000240:	00f707b3          	add	a5,a4,a5
a0000244:	00e7b733          	sltu	a4,a5,a4
a0000248:	00f52023          	sw	a5,0(a0)
a000024c:	00e52223          	sw	a4,4(a0)
a0000250:	00008067          	ret

a0000254 <__am_timer_rtc>:
a0000254:	020007b7          	lui	a5,0x2000
a0000258:	0087a703          	lw	a4,8(a5) # 2000008 <_entry_offset+0x2000008>
a000025c:	00c7a783          	lw	a5,12(a5)
a0000260:	00875613          	srli	a2,a4,0x8
a0000264:	0087d693          	srli	a3,a5,0x8
a0000268:	0ff77313          	zext.b	t1,a4
a000026c:	0ff7f593          	zext.b	a1,a5
a0000270:	0ff67613          	zext.b	a2,a2
a0000274:	01075713          	srli	a4,a4,0x10
a0000278:	0ff6f693          	zext.b	a3,a3
a000027c:	0107d793          	srli	a5,a5,0x10
a0000280:	00652a23          	sw	t1,20(a0)
a0000284:	00c52823          	sw	a2,16(a0)
a0000288:	00e52623          	sw	a4,12(a0)
a000028c:	00b52423          	sw	a1,8(a0)
a0000290:	00d52223          	sw	a3,4(a0)
a0000294:	00f52023          	sw	a5,0(a0)
a0000298:	00008067          	ret

a000029c <__am_gpu_config>:
a000029c:	00100793          	li	a5,1
a00002a0:	00f52023          	sw	a5,0(a0)
a00002a4:	28000793          	li	a5,640
a00002a8:	00f52223          	sw	a5,4(a0)
a00002ac:	1e000793          	li	a5,480
a00002b0:	00f52423          	sw	a5,8(a0)
a00002b4:	0004b7b7          	lui	a5,0x4b
a00002b8:	00f52623          	sw	a5,12(a0)
a00002bc:	00008067          	ret

a00002c0 <__am_gpu_fbdraw>:
a00002c0:	00452783          	lw	a5,4(a0)
a00002c4:	00052703          	lw	a4,0(a0)
a00002c8:	01052383          	lw	t2,16(a0)
a00002cc:	00279313          	slli	t1,a5,0x2
a00002d0:	00f30333          	add	t1,t1,a5
a00002d4:	00731313          	slli	t1,t1,0x7
a00002d8:	00e30333          	add	t1,t1,a4
a00002dc:	084007b7          	lui	a5,0x8400
a00002e0:	00f30333          	add	t1,t1,a5
a00002e4:	00852583          	lw	a1,8(a0)
a00002e8:	00231313          	slli	t1,t1,0x2
a00002ec:	04705e63          	blez	t2,a0000348 <__am_gpu_fbdraw+0x88>
a00002f0:	00c52783          	lw	a5,12(a0)
a00002f4:	000012b7          	lui	t0,0x1
a00002f8:	00000613          	li	a2,0
a00002fc:	a0028293          	addi	t0,t0,-1536 # a00 <_entry_offset+0xa00>
a0000300:	00030693          	mv	a3,t1
a0000304:	00000713          	li	a4,0
a0000308:	02f05863          	blez	a5,a0000338 <__am_gpu_fbdraw+0x78>
a000030c:	02c787b3          	mul	a5,a5,a2
a0000310:	00468693          	addi	a3,a3,4
a0000314:	00e787b3          	add	a5,a5,a4
a0000318:	00279793          	slli	a5,a5,0x2
a000031c:	00f587b3          	add	a5,a1,a5
a0000320:	0007a783          	lw	a5,0(a5) # 8400000 <_entry_offset+0x8400000>
a0000324:	00170713          	addi	a4,a4,1
a0000328:	fef6ae23          	sw	a5,-4(a3)
a000032c:	00c52783          	lw	a5,12(a0)
a0000330:	fcf74ee3          	blt	a4,a5,a000030c <__am_gpu_fbdraw+0x4c>
a0000334:	01052383          	lw	t2,16(a0)
a0000338:	00160613          	addi	a2,a2,1
a000033c:	00530333          	add	t1,t1,t0
a0000340:	fc7640e3          	blt	a2,t2,a0000300 <__am_gpu_fbdraw+0x40>
a0000344:	00008067          	ret
a0000348:	00008067          	ret

a000034c <__am_gpu_status>:
a000034c:	00100793          	li	a5,1
a0000350:	00f50023          	sb	a5,0(a0)
a0000354:	00008067          	ret

a0000358 <__am_uart_init>:
a0000358:	100007b7          	lui	a5,0x10000
a000035c:	f8300713          	li	a4,-125
a0000360:	00e781a3          	sb	a4,3(a5) # 10000003 <_essbl+0xffff53>
a0000364:	00100713          	li	a4,1
a0000368:	00e78023          	sb	a4,0(a5)
a000036c:	00300713          	li	a4,3
a0000370:	00e781a3          	sb	a4,3(a5)
a0000374:	00008067          	ret

a0000378 <__am_uart_tx>:
a0000378:	10000737          	lui	a4,0x10000
a000037c:	00574783          	lbu	a5,5(a4) # 10000005 <_essbl+0xffff55>
a0000380:	0607f793          	andi	a5,a5,96
a0000384:	fe078ce3          	beqz	a5,a000037c <__am_uart_tx+0x4>
a0000388:	00054783          	lbu	a5,0(a0)
a000038c:	00f70023          	sb	a5,0(a4)
a0000390:	00008067          	ret

a0000394 <__am_uart_rx>:
a0000394:	100006b7          	lui	a3,0x10000
a0000398:	0056c783          	lbu	a5,5(a3) # 10000005 <_essbl+0xffff55>
a000039c:	0ff00713          	li	a4,255
a00003a0:	0017f793          	andi	a5,a5,1
a00003a4:	00078663          	beqz	a5,a00003b0 <__am_uart_rx+0x1c>
a00003a8:	0006c703          	lbu	a4,0(a3)
a00003ac:	0ff77713          	zext.b	a4,a4
a00003b0:	00e50023          	sb	a4,0(a0)
a00003b4:	00008067          	ret

a00003b8 <__am_input_keybrd>:
a00003b8:	100117b7          	lui	a5,0x10011
a00003bc:	0007c703          	lbu	a4,0(a5) # 10011000 <_essbl+0x1010f50>
a00003c0:	0ff77793          	zext.b	a5,a4
a00003c4:	06070863          	beqz	a4,a0000434 <__am_input_keybrd+0x7c>
a00003c8:	0e000713          	li	a4,224
a00003cc:	00000697          	auipc	a3,0x0
a00003d0:	57468693          	addi	a3,a3,1396 # a0000940 <keymap>
a00003d4:	02e78e63          	beq	a5,a4,a0000410 <__am_input_keybrd+0x58>
a00003d8:	0f000713          	li	a4,240
a00003dc:	00e78e63          	beq	a5,a4,a00003f8 <__am_input_keybrd+0x40>
a00003e0:	00100713          	li	a4,1
a00003e4:	00e50023          	sb	a4,0(a0)
a00003e8:	00f686b3          	add	a3,a3,a5
a00003ec:	0006c783          	lbu	a5,0(a3)
a00003f0:	00f52223          	sw	a5,4(a0)
a00003f4:	00008067          	ret
a00003f8:	00050023          	sb	zero,0(a0)
a00003fc:	10011637          	lui	a2,0x10011
a0000400:	00064703          	lbu	a4,0(a2) # 10011000 <_essbl+0x1010f50>
a0000404:	0ff77793          	zext.b	a5,a4
a0000408:	fe070ce3          	beqz	a4,a0000400 <__am_input_keybrd+0x48>
a000040c:	fddff06f          	j	a00003e8 <__am_input_keybrd+0x30>
a0000410:	100116b7          	lui	a3,0x10011
a0000414:	0006c703          	lbu	a4,0(a3) # 10011000 <_essbl+0x1010f50>
a0000418:	0ff77793          	zext.b	a5,a4
a000041c:	fe070ce3          	beqz	a4,a0000414 <__am_input_keybrd+0x5c>
a0000420:	0f000713          	li	a4,240
a0000424:	00000697          	auipc	a3,0x0
a0000428:	61c68693          	addi	a3,a3,1564 # a0000a40 <keymap_ext>
a000042c:	fae79ae3          	bne	a5,a4,a00003e0 <__am_input_keybrd+0x28>
a0000430:	fc9ff06f          	j	a00003f8 <__am_input_keybrd+0x40>
a0000434:	00000793          	li	a5,0
a0000438:	00050023          	sb	zero,0(a0)
a000043c:	00f52223          	sw	a5,4(a0)
a0000440:	00008067          	ret

a0000444 <__am_input_init>:
a0000444:	ff810113          	addi	sp,sp,-8
a0000448:	00000797          	auipc	a5,0x0
a000044c:	4f878793          	addi	a5,a5,1272 # a0000940 <keymap>
a0000450:	00812223          	sw	s0,4(sp)
a0000454:	00912023          	sw	s1,0(sp)
a0000458:	00100313          	li	t1,1
a000045c:	06678b23          	sb	t1,118(a5)
a0000460:	00800313          	li	t1,8
a0000464:	086781a3          	sb	t1,131(a5)
a0000468:	00a00313          	li	t1,10
a000046c:	006780a3          	sb	t1,1(a5)
a0000470:	00c00313          	li	t1,12
a0000474:	06678c23          	sb	t1,120(a5)
a0000478:	00600313          	li	t1,6
a000047c:	006781a3          	sb	t1,3(a5)
a0000480:	0d030337          	lui	t1,0xd030
a0000484:	20430313          	addi	t1,t1,516 # d030204 <_entry_offset+0xd030204>
a0000488:	0067a223          	sw	t1,4(a5)
a000048c:	00f00313          	li	t1,15
a0000490:	00678b23          	sb	t1,22(a5)
a0000494:	01b00313          	li	t1,27
a0000498:	06678323          	sb	t1,102(a5)
a000049c:	00b00313          	li	t1,11
a00004a0:	006784a3          	sb	t1,9(a5)
a00004a4:	70900313          	li	t1,1801
a00004a8:	00679523          	sh	t1,10(a5)
a00004ac:	00e00313          	li	t1,14
a00004b0:	00678723          	sb	t1,14(a5)
a00004b4:	01d00313          	li	t1,29
a00004b8:	00678aa3          	sb	t1,21(a5)
a00004bc:	02900313          	li	t1,41
a00004c0:	04678ea3          	sb	t1,93(a5)
a00004c4:	02a00313          	li	t1,42
a00004c8:	04678c23          	sb	t1,88(a5)
a00004cc:	03300313          	li	t1,51
a00004d0:	00003637          	lui	a2,0x3
a00004d4:	046785a3          	sb	t1,75(a5)
a00004d8:	01900313          	li	t1,25
a00004dc:	000026b7          	lui	a3,0x2
a00004e0:	83660293          	addi	t0,a2,-1994 # 2836 <_entry_offset+0x2836>
a00004e4:	04678723          	sb	t1,78(a5)
a00004e8:	03500313          	li	t1,53
a00004ec:	63468393          	addi	t2,a3,1588 # 2634 <_entry_offset+0x2634>
a00004f0:	04678923          	sb	t1,82(a5)
a00004f4:	04579d23          	sh	t0,90(a5)
a00004f8:	03700313          	li	t1,55
a00004fc:	000032b7          	lui	t0,0x3
a0000500:	04779623          	sh	t2,76(a5)
a0000504:	00678923          	sb	t1,18(a5)
a0000508:	000023b7          	lui	t2,0x2
a000050c:	c3828313          	addi	t1,t0,-968 # 2c38 <_entry_offset+0x2c38>
a0000510:	00679d23          	sh	t1,26(a5)
a0000514:	e2b38313          	addi	t1,t2,-469 # 1e2b <_entry_offset+0x1e2b>
a0000518:	00679e23          	sh	t1,28(a5)
a000051c:	01000313          	li	t1,16
a0000520:	00678f23          	sb	t1,30(a5)
a0000524:	03a00313          	li	t1,58
a0000528:	026780a3          	sb	t1,33(a5)
a000052c:	d3928313          	addi	t1,t0,-711
a0000530:	02679123          	sh	t1,34(a5)
a0000534:	00001337          	lui	t1,0x1
a0000538:	21f30313          	addi	t1,t1,543 # 121f <_entry_offset+0x121f>
a000053c:	02679223          	sh	t1,36(a5)
a0000540:	01100313          	li	t1,17
a0000544:	c0568493          	addi	s1,a3,-1019
a0000548:	a2768413          	addi	s0,a3,-1497
a000054c:	02678323          	sb	t1,38(a5)
a0000550:	e3b28313          	addi	t1,t0,-453
a0000554:	00979623          	sh	s1,12(a5)
a0000558:	04879a23          	sh	s0,84(a5)
a000055c:	02679523          	sh	t1,42(a5)
a0000560:	43268293          	addi	t0,a3,1074
a0000564:	02138313          	addi	t1,t2,33
a0000568:	22f68393          	addi	t2,a3,559
a000056c:	82568693          	addi	a3,a3,-2011
a0000570:	02679623          	sh	t1,44(a5)
a0000574:	04d79223          	sh	a3,68(a5)
a0000578:	01700693          	li	a3,23
a000057c:	04d78323          	sb	a3,70(a5)
a0000580:	04000693          	li	a3,64
a0000584:	04d784a3          	sb	a3,73(a5)
a0000588:	04100693          	li	a3,65
a000058c:	04d78523          	sb	a3,74(a5)
a0000590:	04200693          	li	a3,66
a0000594:	04d78ca3          	sb	a3,89(a5)
a0000598:	03c60413          	addi	s0,a2,60
a000059c:	04300693          	li	a3,67
a00005a0:	13e60613          	addi	a2,a2,318
a00005a4:	02c79d23          	sh	a2,58(a5)
a00005a8:	00d78a23          	sb	a3,20(a5)
a00005ac:	01600613          	li	a2,22
a00005b0:	04500693          	li	a3,69
a00005b4:	00001537          	lui	a0,0x1
a00005b8:	02779a23          	sh	t2,52(a5)
a00005bc:	02c78f23          	sb	a2,62(a5)
a00005c0:	00d788a3          	sb	a3,17(a5)
a00005c4:	01300313          	li	t1,19
a00005c8:	03d00493          	li	s1,61
a00005cc:	52350513          	addi	a0,a0,1315 # 1523 <_entry_offset+0x1523>
a00005d0:	01400393          	li	t2,20
a00005d4:	03f00613          	li	a2,63
a00005d8:	04600693          	li	a3,70
a00005dc:	00000717          	auipc	a4,0x0
a00005e0:	46470713          	addi	a4,a4,1124 # a0000a40 <keymap_ext>
a00005e4:	02678723          	sb	t1,46(a5)
a00005e8:	029788a3          	sb	s1,49(a5)
a00005ec:	02879923          	sh	s0,50(a5)
a00005f0:	02778b23          	sb	t2,54(a5)
a00005f4:	02a79e23          	sh	a0,60(a5)
a00005f8:	04c780a3          	sb	a2,65(a5)
a00005fc:	04579123          	sh	t0,66(a5)
a0000600:	02d784a3          	sb	a3,41(a5)
a0000604:	04700793          	li	a5,71
a0000608:	00f708a3          	sb	a5,17(a4)
a000060c:	04800793          	li	a5,72
a0000610:	00f70a23          	sb	a5,20(a4)
a0000614:	04b00793          	li	a5,75
a0000618:	06f705a3          	sb	a5,107(a4)
a000061c:	04a00793          	li	a5,74
a0000620:	06f70923          	sb	a5,114(a4)
a0000624:	04f00793          	li	a5,79
a0000628:	06f70623          	sb	a5,108(a4)
a000062c:	05000793          	li	a5,80
a0000630:	06f704a3          	sb	a5,105(a4)
a0000634:	000055b7          	lui	a1,0x5
a0000638:	05100793          	li	a5,81
a000063c:	06f70ea3          	sb	a5,125(a4)
a0000640:	94c58313          	addi	t1,a1,-1716 # 494c <_entry_offset+0x494c>
a0000644:	05200793          	li	a5,82
a0000648:	e4d58593          	addi	a1,a1,-435
a000064c:	06671a23          	sh	t1,116(a4)
a0000650:	06b71823          	sh	a1,112(a4)
a0000654:	06f70d23          	sb	a5,122(a4)
a0000658:	00412403          	lw	s0,4(sp)
a000065c:	00012483          	lw	s1,0(sp)
a0000660:	00810113          	addi	sp,sp,8
a0000664:	00008067          	ret

a0000668 <memset>:
a0000668:	0ff5f593          	zext.b	a1,a1
a000066c:	00c50733          	add	a4,a0,a2
a0000670:	00050793          	mv	a5,a0
a0000674:	00060863          	beqz	a2,a0000684 <memset+0x1c>
a0000678:	00178793          	addi	a5,a5,1
a000067c:	feb78fa3          	sb	a1,-1(a5)
a0000680:	fee79ce3          	bne	a5,a4,a0000678 <memset+0x10>
a0000684:	00008067          	ret
a0000688:	6548                	.2byte	0x6548
a000068a:	6c6c                	.2byte	0x6c6c
a000068c:	41202c6f          	jal	s8,a0002a9e <_heap_start+0x1a9e>
a0000690:	7362                	.2byte	0x7362
a0000692:	7274                	.2byte	0x7274
a0000694:	6361                	.2byte	0x6361
a0000696:	4d74                	.2byte	0x4d74
a0000698:	6361                	.2byte	0x6361
a000069a:	6968                	.2byte	0x6968
a000069c:	656e                	.2byte	0x656e
a000069e:	0a21                	.2byte	0xa21
a00006a0:	616d                	.2byte	0x616d
a00006a2:	6e69                	.2byte	0x6e69
a00006a4:	7261                	.2byte	0x7261
a00006a6:	3d207367          	.4byte	0x3d207367
a00006aa:	2720                	.2byte	0x2720
a00006ac:	2725                	.2byte	0x2725
a00006ae:	0a2e                	.2byte	0xa2e
a00006b0:	0000                	.2byte	0x0
a00006b2:	0000                	.2byte	0x0
a00006b4:	4d41                	.2byte	0x4d41
a00006b6:	5020                	.2byte	0x5020
a00006b8:	6e61                	.2byte	0x6e61
a00006ba:	6369                	.2byte	0x6369
a00006bc:	203a                	.2byte	0x203a
a00006be:	0000                	.2byte	0x0
a00006c0:	6361                	.2byte	0x6361
a00006c2:	73736563          	bltu	t1,s7,a0000dec <_bss_end+0x2ac>
a00006c6:	6e20                	.2byte	0x6e20
a00006c8:	78656e6f          	jal	t3,a0056e4e <_heap_start+0x55e4e>
a00006cc:	7369                	.2byte	0x7369
a00006ce:	2074                	.2byte	0x2074
a00006d0:	6572                	.2byte	0x6572
a00006d2:	74736967          	.4byte	0x74736967
a00006d6:	7265                	.2byte	0x7265
a00006d8:	0000                	.2byte	0x0
a00006da:	0000                	.2byte	0x0
a00006dc:	4020                	.2byte	0x4020
a00006de:	2f20                	.2byte	0x2f20
a00006e0:	6f68                	.2byte	0x6f68
a00006e2:	656d                	.2byte	0x656d
a00006e4:	7475742f          	.4byte	0x7475742f
a00006e8:	7475                	.2byte	0x7475
a00006ea:	2f75                	.2byte	0x2f75
a00006ec:	7268                	.2byte	0x7268
a00006ee:	2f79                	.2byte	0x2f79
a00006f0:	7379                	.2byte	0x7379
a00006f2:	7879                	.2byte	0x7879
a00006f4:	7973792f          	.4byte	0x7973792f
a00006f8:	2d78                	.2byte	0x2d78
a00006fa:	6b726f77          	.4byte	0x6b726f77
a00006fe:	6562                	.2byte	0x6562
a0000700:	636e                	.2byte	0x636e
a0000702:	2f68                	.2byte	0x2f68
a0000704:	6261                	.2byte	0x6261
a0000706:	61727473          	.4byte	0x61727473
a000070a:	6d2d7463          	bgeu	s10,s2,a0000dd2 <_bss_end+0x292>
a000070e:	6361                	.2byte	0x6361
a0000710:	6968                	.2byte	0x6968
a0000712:	656e                	.2byte	0x656e
a0000714:	2f6d612f          	.4byte	0x2f6d612f
a0000718:	2f637273          	.4byte	0x2f637273
a000071c:	6972                	.2byte	0x6972
a000071e:	2f766373          	.4byte	0x2f766373
a0000722:	7379                	.2byte	0x7379
a0000724:	7879                	.2byte	0x7879
a0000726:	2f636f73          	.4byte	0x2f636f73
a000072a:	6f69                	.2byte	0x6f69
a000072c:	2e65                	.2byte	0x2e65
a000072e:	39333a63          	.4byte	0x39333a63
a0000732:	2020                	.2byte	0x2020
a0000734:	000a                	.2byte	0xa
	...

a0000738 <mainargs>:
a0000738:	6574 7473                                    test.
